
RUN_ON_HDL_SIMULATOR_ONLY_Final_Project.elf:     file format elf32-littlenios2
RUN_ON_HDL_SIMULATOR_ONLY_Final_Project.elf
architecture: nios2:r1, flags 0x00000112:
EXEC_P, HAS_SYMS, D_PAGED
start address 0x00020230

Program Header:
    LOAD off    0x00001000 vaddr 0x00020000 paddr 0x00020000 align 2**12
         filesz 0x00000020 memsz 0x00000020 flags r-x
    LOAD off    0x00001020 vaddr 0x00020020 paddr 0x00020020 align 2**12
         filesz 0x0000f9f4 memsz 0x0000f9f4 flags r-x
    LOAD off    0x00010a14 vaddr 0x0002fa14 paddr 0x0002fd44 align 2**12
         filesz 0x00000330 memsz 0x00000330 flags rw-
    LOAD off    0x00011074 vaddr 0x00030074 paddr 0x00030074 align 2**12
         filesz 0x00000000 memsz 0x0000052c flags rw-

Sections:
Idx Name          Size      VMA       LMA       File off  Algn
  0 .entry        00000020  00020000  00020000  00001000  2**5
                  CONTENTS, ALLOC, LOAD, READONLY, CODE
  1 .exceptions   00000210  00020020  00020020  00001020  2**2
                  CONTENTS, ALLOC, LOAD, READONLY, CODE
  2 .text         00009da8  00020230  00020230  00001230  2**2
                  CONTENTS, ALLOC, LOAD, READONLY, CODE
  3 .rodata       00005a3c  00029fd8  00029fd8  0000afd8  2**2
                  CONTENTS, ALLOC, LOAD, READONLY, DATA
  4 .rwdata       00000330  0002fa14  0002fd44  00010a14  2**2
                  CONTENTS, ALLOC, LOAD, DATA, SMALL_DATA
  5 .bss          0000052c  00030074  00030074  00011074  2**2
                  ALLOC, SMALL_DATA
  6 .onchip_memory2_0 00000000  000305a0  000305a0  00010d44  2**0
                  CONTENTS
  7 .comment      00000023  00000000  00000000  00010d44  2**0
                  CONTENTS, READONLY
  8 .debug_aranges 000009b0  00000000  00000000  00010d68  2**3
                  CONTENTS, READONLY, DEBUGGING
  9 .debug_info   0000f98a  00000000  00000000  00011718  2**0
                  CONTENTS, READONLY, DEBUGGING
 10 .debug_abbrev 00004dcf  00000000  00000000  000210a2  2**0
                  CONTENTS, READONLY, DEBUGGING
 11 .debug_line   000060be  00000000  00000000  00025e71  2**0
                  CONTENTS, READONLY, DEBUGGING
 12 .debug_frame  00001eb4  00000000  00000000  0002bf30  2**2
                  CONTENTS, READONLY, DEBUGGING
 13 .debug_str    0000387f  00000000  00000000  0002dde4  2**0
                  CONTENTS, READONLY, DEBUGGING
 14 .debug_loc    00008b29  00000000  00000000  00031663  2**0
                  CONTENTS, READONLY, DEBUGGING
 15 .debug_ranges 00000d38  00000000  00000000  0003a190  2**3
                  CONTENTS, READONLY, DEBUGGING
 16 .thread_model 00000003  00000000  00000000  0003de02  2**0
                  CONTENTS, READONLY
 17 .cpu          0000000c  00000000  00000000  0003de05  2**0
                  CONTENTS, READONLY
 18 .qsys         00000001  00000000  00000000  0003de11  2**0
                  CONTENTS, READONLY
 19 .simulation_enabled 00000001  00000000  00000000  0003de12  2**0
                  CONTENTS, READONLY
 20 .stderr_dev   0000000b  00000000  00000000  0003de13  2**0
                  CONTENTS, READONLY
 21 .stdin_dev    0000000b  00000000  00000000  0003de1e  2**0
                  CONTENTS, READONLY
 22 .stdout_dev   0000000b  00000000  00000000  0003de29  2**0
                  CONTENTS, READONLY
 23 .sopc_system_name 00000006  00000000  00000000  0003de34  2**0
                  CONTENTS, READONLY
 24 .quartus_project_dir 00000026  00000000  00000000  0003de3a  2**0
                  CONTENTS, READONLY
 25 .jdi          000062da  00000000  00000000  0003de60  2**0
                  CONTENTS, READONLY
 26 .sopcinfo     0003270d  00000000  00000000  0004413a  2**0
                  CONTENTS, READONLY
SYMBOL TABLE:
00020000 l    d  .entry	00000000 .entry
00020020 l    d  .exceptions	00000000 .exceptions
00020230 l    d  .text	00000000 .text
00029fd8 l    d  .rodata	00000000 .rodata
0002fa14 l    d  .rwdata	00000000 .rwdata
00030074 l    d  .bss	00000000 .bss
000305a0 l    d  .onchip_memory2_0	00000000 .onchip_memory2_0
00000000 l    d  .comment	00000000 .comment
00000000 l    d  .debug_aranges	00000000 .debug_aranges
00000000 l    d  .debug_info	00000000 .debug_info
00000000 l    d  .debug_abbrev	00000000 .debug_abbrev
00000000 l    d  .debug_line	00000000 .debug_line
00000000 l    d  .debug_frame	00000000 .debug_frame
00000000 l    d  .debug_str	00000000 .debug_str
00000000 l    d  .debug_loc	00000000 .debug_loc
00000000 l    d  .debug_ranges	00000000 .debug_ranges
00000000 l    df *ABS*	00000000 ../Final_Project_bsp//obj/HAL/src/crt0.o
00020248 l       .text	00000000 alt_after_alt_main
00000000 l    df *ABS*	00000000 alt_irq_handler.c
00000000 l    df *ABS*	00000000 alt_instruction_exception_entry.c
00000000 l    df *ABS*	00000000 DS1307.c
00000000 l    df *ABS*	00000000 SH1106.c
000300a0 l     O .bss	00000400 SH1106_Buffer
00030074 l     O .bss	00000006 SH1106
00000000 l    df *ABS*	00000000 fonts.c
00000000 l    df *ABS*	00000000 source.c
00000000 l    df *ABS*	00000000 libgcc2.c
00000000 l    df *ABS*	00000000 lib2-divmod.c
00000000 l    df *ABS*	00000000 lib2-mul.c
00000000 l    df *ABS*	00000000 divsf3.c
00000000 l    df *ABS*	00000000 gesf2.c
00000000 l    df *ABS*	00000000 mulsf3.c
00000000 l    df *ABS*	00000000 subsf3.c
00000000 l    df *ABS*	00000000 fixsfsi.c
00000000 l    df *ABS*	00000000 floatsisf.c
00000000 l    df *ABS*	00000000 divdf3.c
00000000 l    df *ABS*	00000000 muldf3.c
00000000 l    df *ABS*	00000000 subdf3.c
00000000 l    df *ABS*	00000000 extendsfdf2.c
00000000 l    df *ABS*	00000000 truncdfsf2.c
00000000 l    df *ABS*	00000000 libgcc2.c
00000000 l    df *ABS*	00000000 libgcc2.c
00000000 l    df *ABS*	00000000 memset.c
00000000 l    df *ABS*	00000000 printf.c
00000000 l    df *ABS*	00000000 puts.c
00000000 l    df *ABS*	00000000 sprintf.c
00000000 l    df *ABS*	00000000 strlen.c
00000000 l    df *ABS*	00000000 vfprintf.c
00025c84 l     F .text	0000006c print_repeat
00000000 l    df *ABS*	00000000 vfprintf.c
00026238 l     F .text	0000006c print_repeat
00000000 l    df *ABS*	00000000 fvwrite_small_dev.c
00000000 l    df *ABS*	00000000 fvwrite_small_str.c
00000000 l    df *ABS*	00000000 impure.c
0002fa14 l     O .rwdata	000000e0 impure_data
00000000 l    df *ABS*	00000000 memmove.c
00000000 l    df *ABS*	00000000 writer.c
00000000 l    df *ABS*	00000000 int_errno.c
00000000 l    df *ABS*	00000000 alt_load.c
00026a04 l     F .text	00000068 alt_load_section
00000000 l    df *ABS*	00000000 alt_main.c
00000000 l    df *ABS*	00000000 alt_usleep.c
00000000 l    df *ABS*	00000000 alt_write.c
00026b9c l     F .text	0000003c alt_get_errno
00000000 l    df *ABS*	00000000 alt_sys_init.c
00026cd8 l     F .text	00000034 alt_dev_reg
0002faf4 l     O .rwdata	00000038 i2c_0
0002fb2c l     O .rwdata	0000002c jtag_uart_0
00000000 l    df *ABS*	00000000 altera_avalon_i2c.c
00026d84 l     F .text	00000110 optional_irq_callback
00026ee4 l     F .text	0000009c alt_avalon_i2c_irq
00000000 l    df *ABS*	00000000 altera_avalon_jtag_uart_fd.c
00000000 l    df *ABS*	00000000 altera_avalon_jtag_uart_read.c
00000000 l    df *ABS*	00000000 altera_avalon_jtag_uart_write.c
00000000 l    df *ABS*	00000000 alt_busy_sleep.c
00000000 l    df *ABS*	00000000 alt_close.c
00028c00 l     F .text	0000003c alt_get_errno
00000000 l    df *ABS*	00000000 alt_dcache_flush_all.c
00000000 l    df *ABS*	00000000 alt_dev.c
00028d34 l     F .text	0000002c alt_dev_null_write
00000000 l    df *ABS*	00000000 alt_dev_llist_insert.c
00028d60 l     F .text	0000003c alt_get_errno
00000000 l    df *ABS*	00000000 alt_do_ctors.c
00000000 l    df *ABS*	00000000 alt_do_dtors.c
00000000 l    df *ABS*	00000000 alt_errno.c
00000000 l    df *ABS*	00000000 alt_find_dev.c
00000000 l    df *ABS*	00000000 alt_icache_flush_all.c
00000000 l    df *ABS*	00000000 alt_iic.c
00000000 l    df *ABS*	00000000 alt_iic_isr_register.c
00000000 l    df *ABS*	00000000 alt_io_redirect.c
00029250 l     F .text	000000e4 alt_open_fd
00000000 l    df *ABS*	00000000 alt_irq_vars.c
00000000 l    df *ABS*	00000000 alt_open.c
000293b0 l     F .text	0000003c alt_get_errno
000293ec l     F .text	000000ec alt_file_locked
00000000 l    df *ABS*	00000000 alt_printf.c
00000000 l    df *ABS*	00000000 alt_putchar.c
00000000 l    df *ABS*	00000000 alt_release_fd.c
00000000 l    df *ABS*	00000000 altera_nios2_gen2_irq.c
00000000 l    df *ABS*	00000000 alt_find_file.c
00000000 l    df *ABS*	00000000 alt_get_fd.c
00000000 l    df *ABS*	00000000 atexit.c
00000000 l    df *ABS*	00000000 exit.c
00000000 l    df *ABS*	00000000 memcmp.c
00000000 l    df *ABS*	00000000 putc.c
00000000 l    df *ABS*	00000000 __atexit.c
00000000 l    df *ABS*	00000000 __call_atexit.c
00000000 l    df *ABS*	00000000 alt_exit.c
0003009c g     O .bss	00000004 alt_instruction_exception_handler
00020470 g     F .text	00000064 DS1307_SetInterruptRate
00020404 g     F .text	0000006c DS1307_SetEnableSquareWave
00026af0 g     F .text	0000007c alt_main
000206b8 g     F .text	0000002c DS1307_GetTimeZoneMin
00025af8 g     F .text	00000080 _puts_r
000304a0 g     O .bss	00000100 alt_irq
000210dc g     F .text	000000b8 SH1106_Puts
0002fd44 g       *ABS*	00000000 __flash_rwdata_start
00025aac g     F .text	0000004c printf
0002e3ec g     O .rodata	00000400 horse6
000275dc g     F .text	000000a8 alt_avalon_i2c_rx_read
0002f3ec g     O .rodata	00000400 horse10
00022c58 g     F .text	00000440 .hidden __divsf3
000209ec g     F .text	00000060 DS1307_EncodeBCD
000287f4 g     F .text	00000044 alt_avalon_i2c_enabled_ints_get
00027360 g     F .text	00000094 alt_avalon_i2c_master_config_speed_get
0002024c g     F .text	00000030 DS1307_Init
0002694c g     F .text	00000060 memmove
00028044 g     F .text	0000020c alt_avalon_i2c_master_transmit_using_interrupts
00023a68 g     F .text	00000070 .hidden __fixsfsi
00022150 g     F .text	000000cc SH1106_I2C_WriteMulti
00029920 g     F .text	00000024 altera_nios2_gen2_irq_init
000268a4 g     F .text	000000a8 __sfvwrite_small_str
00020000 g     F .entry	0000000c __reset
000222ec g     F .text	00000164 SH1106_DrawBitmap
0002099c g     F .text	00000050 DS1307_DecodeBCD
00020020 g       *ABS*	00000000 __flash_exceptions_start
00021194 g     F .text	00000320 SH1106_DrawLine
00022294 g     F .text	00000058 SH1106_InvertDisplay
00030088 g     O .bss	00000004 errno
000220f8 g     F .text	00000058 SH1106_OFF
00030090 g     O .bss	00000004 alt_argv
000224cc g     F .text	00000058 I2C0_Init
00037d00 g       *ABS*	00000000 _gp
00026b6c g     F .text	00000030 usleep
00028838 g     F .text	0000004c alt_avalon_i2c_rx_fifo_threshold_get
00023584 g     F .text	000004e4 .hidden __subsf3
000274f0 g     F .text	00000044 alt_avalon_i2c_is_busy
0002fb80 g     O .rwdata	00000180 alt_fd_list
0002057c g     F .text	00000060 DS1307_GetYear
000214b4 g     F .text	00000190 SH1106_DrawRectangle
00027294 g     F .text	000000cc alt_avalon_i2c_master_config_set
00028f00 g     F .text	00000090 alt_find_dev
0002fd10 g     O .rwdata	00000008 Font_16x26
00029334 g     F .text	0000007c alt_io_redirect
00029fd8 g       *ABS*	00000000 __DTOR_END__
00027e84 g     F .text	000001c0 alt_avalon_i2c_master_transmit
00025b78 g     F .text	00000014 puts
00029b10 g     F .text	0000009c alt_exception_cause_generated_bad_addr
00028a5c g     F .text	000000ec altera_avalon_jtag_uart_read
00025a70 g     F .text	0000003c _printf_r
00020000 g       *ABS*	00000000 __alt_mem_onchip_memory2_0
00022b74 g     F .text	00000064 .hidden __udivsi3
00020544 g     F .text	00000038 DS1307_GetMonth
00027100 g     F .text	00000098 alt_avalon_i2c_enable
000202ec g     F .text	00000034 DS1307_GetClockHalt
00028728 g     F .text	00000068 alt_avalon_i2c_int_disable
0003007c g     O .bss	00000004 Temp
0002efec g     O .rodata	00000400 horse9
0002fd38 g     O .rwdata	00000004 alt_max_fd
00028250 g     F .text	00000210 alt_avalon_i2c_master_receive
00025734 g     F .text	00000110 .hidden __extendsfdf2
00028790 g     F .text	00000064 alt_avalon_i2c_int_enable
0002fd18 g     O .rwdata	00000004 _global_impure_ptr
0002a744 g     O .rodata	00000d5c Font11x18
000305a0 g       *ABS*	00000000 __bss_end
00029160 g     F .text	000000f0 alt_iic_isr_register
00021644 g     F .text	00000114 SH1106_DrawFilledRectangle
00028650 g     F .text	00000058 alt_avalon_i2c_int_status_get
0002ebec g     O .rodata	00000400 horse8
00029114 g     F .text	0000004c alt_ic_irq_enabled
00026f80 g     F .text	00000054 alt_avalon_i2c_register_callback
00030098 g     O .bss	00000004 alt_irq_active
00026fd4 g     F .text	000000ec alt_avalon_i2c_init
00022524 g     F .text	000002c8 AHT20_Read
000200fc g     F .exceptions	000000d4 alt_irq_handler
0002fb58 g     O .rwdata	00000028 alt_dev_null
000220a0 g     F .text	00000058 SH1106_ON
000205dc g     F .text	0000003c DS1307_GetHour
000204d4 g     F .text	00000038 DS1307_GetDayOfWeek
00028d14 g     F .text	00000020 alt_dcache_flush_all
0002068c g     F .text	0000002c DS1307_GetTimeZoneHour
0002fd44 g       *ABS*	00000000 __ram_rwdata_end
0002fd30 g     O .rwdata	00000008 alt_dev_list
00026bd8 g     F .text	00000100 write
00029c64 g     F .text	00000058 _putc_r
00027910 g     F .text	0000004c alt_avalon_i2c_check_arblost
00023098 g     F .text	000000bc .hidden __gtsf2
000286ec g     F .text	0000003c alt_avalon_i2c_int_clear
0002fa14 g       *ABS*	00000000 __ram_rodata_end
00020618 g     F .text	00000038 DS1307_GetMinute
0002fd20 g     O .rwdata	00000008 alt_avalon_i2c_list
0002077c g     F .text	0000004c DS1307_SetMonth
0002dfec g     O .rodata	00000400 horse5
00020d3c g     F .text	00000054 SH1106_Fill
00022bd8 g     F .text	00000058 .hidden __umodsi3
0002221c g     F .text	00000078 SH1106_I2C_Write
000305a0 g       *ABS*	00000000 end
000201d0 g     F .exceptions	00000060 alt_instruction_exception_entry
000270c0 g     F .text	00000040 alt_avalon_i2c_open
00030080 g     O .bss	00000004 Humid
00029fd8 g       *ABS*	00000000 __CTOR_LIST__
00040000 g       *ABS*	00000000 __alt_stack_pointer
00027a98 g     F .text	000000e8 alt_avalon_i2c_master_tx
000259ec g     F .text	00000064 .hidden __clzsi2
00028b48 g     F .text	00000094 altera_avalon_jtag_uart_write
000262a4 g     F .text	0000052c ___vfprintf_internal_r
00025b8c g     F .text	00000064 _sprintf_r
00029634 g     F .text	0000022c alt_printf
00020320 g     F .text	00000070 DS1307_SetRegByte
00029e14 g     F .text	00000190 __call_exitprocs
00026e94 g     F .text	00000050 alt_avalon_i2c_register_optional_irq_handler
00020230 g     F .text	0000001c _start
0002050c g     F .text	00000038 DS1307_GetDate
00028460 g     F .text	000001f0 alt_avalon_i2c_master_receive_using_interrupts
00028884 g     F .text	00000064 alt_avalon_i2c_rx_fifo_threshold_set
000206e4 g     F .text	0000004c DS1307_SetDayOfWeek
00026d44 g     F .text	00000040 alt_sys_init
00023ad8 g     F .text	00000124 .hidden __floatsisf
00029cbc g     F .text	00000158 __register_exitproc
00027cbc g     F .text	000001c8 alt_avalon_i2c_master_tx_rx
0002d3ec g     O .rodata	00000400 horse2
00021d70 g     F .text	000002fc SH1106_DrawFilledCircle
00022c30 g     F .text	00000028 .hidden __mulsi3
0002fa14 g       *ABS*	00000000 __ram_rwdata_start
00029fd8 g       *ABS*	00000000 __ram_rodata_start
00020ee0 g     F .text	00000040 SH1106_GotoXY
0002899c g     F .text	00000060 altera_avalon_jtag_uart_read_fd
00029a4c g     F .text	000000c4 alt_get_fd
00028bdc g     F .text	00000024 alt_busy_sleep
0002d7ec g     O .rodata	00000400 horse3
0002cbec g     O .rodata	00000400 LOGO_BW_map
00029be0 g     F .text	00000030 memcmp
00027534 g     F .text	000000a8 alt_avalon_i2c_rx_read_available
000305a0 g       *ABS*	00000000 __alt_stack_base
00030084 g     O .bss	00000004 i2c_dev
00023bfc g     F .text	000009d0 .hidden __divdf3
000245cc g     F .text	0000086c .hidden __muldf3
00020a4c g     F .text	000001c4 SH1106_Init
00029944 g     F .text	00000108 alt_find_file
00029fd8 g     O .rodata	0000076c Font7x10
00028d9c g     F .text	000000a4 alt_dev_llist_insert
00025cf0 g     F .text	0000052c ___svfprintf_internal_r
0002795c g     F .text	0000013c alt_avalon_i2c_interrupt_transaction_status
000278c4 g     F .text	0000004c alt_avalon_i2c_check_nack
000267ec g     F .text	000000b8 __sfvwrite_small_dev
00030074 g       *ABS*	00000000 __bss_start
00025a50 g     F .text	00000020 memset
000227ec g     F .text	00000230 main
00027890 g     F .text	00000034 alt_avalon_i2c_master_target_set
00030094 g     O .bss	00000004 alt_envp
000289fc g     F .text	00000060 altera_avalon_jtag_uart_write_fd
000286a8 g     F .text	00000044 alt_avalon_i2c_int_raw_status_get
00025844 g     F .text	000001a8 .hidden __truncdfsf2
00021834 g     F .text	00000264 SH1106_DrawFilledTriangle
0002fd3c g     O .rwdata	00000004 alt_errno
00020390 g     F .text	00000074 DS1307_GetRegByte
00029c10 g     F .text	00000054 putc
00022a7c g     F .text	00000084 .hidden __divsi3
00020c10 g     F .text	000000ac SH1106_UpdateScreen
00029fd8 g       *ABS*	00000000 __CTOR_END__
00023154 g     F .text	00000430 .hidden __mulsf3
00020894 g     F .text	0000004c DS1307_SetMinute
00029fd8 g       *ABS*	00000000 __flash_rodata_start
00029fd8 g       *ABS*	00000000 __DTOR_LIST__
00021758 g     F .text	000000dc SH1106_DrawTriangle
00026d0c g     F .text	00000038 alt_irq_init
0002989c g     F .text	00000084 alt_release_fd
00025bf0 g     F .text	00000078 sprintf
0002f8ae g     O .rodata	00000100 .hidden __clz_tab
0002e7ec g     O .rodata	00000400 horse7
00020844 g     F .text	00000050 DS1307_SetHour
00029bac g     F .text	00000014 atexit
00023098 g     F .text	000000bc .hidden __gesf2
000269ac g     F .text	00000058 _write_r
00020730 g     F .text	0000004c DS1307_SetDate
00020940 g     F .text	0000005c DS1307_SetTimeZone
0002fd1c g     O .rwdata	00000004 _impure_ptr
0003008c g     O .bss	00000004 alt_argc
00028ea0 g     F .text	00000060 _do_dtors
00027858 g     F .text	00000038 alt_avalon_i2c_master_target_get
00027768 g     F .text	000000f0 alt_avalon_i2c_send_address
000207c8 g     F .text	0000007c DS1307_SetYear
00020020 g       .exceptions	00000000 alt_irq_entry
0002fd00 g     O .rwdata	00000008 Font_7x10
0002fd28 g     O .rwdata	00000008 alt_fs_list
0002621c g     F .text	0000001c __vfprintf_internal_unused
0002206c g     F .text	00000034 SH1106_Clear
00020020 g       *ABS*	00000000 __ram_exceptions_start
00020650 g     F .text	0000003c DS1307_GetSecond
00028934 g     F .text	00000068 alt_avalon_i2c_tfr_cmd_fifo_threshold_set
00028fb0 g     F .text	00000050 alt_ic_isr_register
00027198 g     F .text	0000004c alt_avalon_i2c_disable
0002fd44 g       *ABS*	00000000 _edata
000305a0 g       *ABS*	00000000 _end
00020230 g       *ABS*	00000000 __ram_exceptions_end
0002b4a0 g     O .rodata	0000134c Font16x26
000271e4 g     F .text	000000b0 alt_avalon_i2c_master_config_get
00021a98 g     F .text	000002d8 SH1106_DrawCircle
00029088 g     F .text	0000008c alt_ic_irq_disable
00029bc0 g     F .text	00000020 exit
00020cbc g     F .text	00000080 SH1106_ToggleInvert
00022b00 g     F .text	00000074 .hidden __modsi3
0002fd08 g     O .rwdata	00000008 Font_11x18
00040000 g       *ABS*	00000000 __alt_data_end
00020020 g     F .exceptions	00000000 alt_exception
000273f4 g     F .text	000000fc alt_avalon_i2c_master_config_speed_set
00027684 g     F .text	000000e4 alt_avalon_i2c_cmd_write
00022a1c g     F .text	00000060 .hidden __fixunssfsi
00022450 g     F .text	0000007c FONTS_GetStringSize
0002dbec g     O .rodata	00000400 horse4
00029fa4 g     F .text	00000034 _exit
00020f20 g     F .text	000001bc SH1106_Putc
00025c68 g     F .text	0000001c strlen
000294d8 g     F .text	0000015c open
0002cfec g     O .rodata	00000400 horse1
00029860 g     F .text	0000003c alt_putchar
00028f90 g     F .text	00000020 alt_icache_flush_all
00020d90 g     F .text	00000150 SH1106_DrawPixel
0002fd40 g     O .rwdata	00000004 alt_priority_mask
000208e0 g     F .text	00000060 DS1307_SetSecond
00029000 g     F .text	00000088 alt_ic_irq_enable
000267d0 g     F .text	0000001c __vfprintf_internal
00024e38 g     F .text	000008fc .hidden __subdf3
00028e40 g     F .text	00000060 _do_ctors
00028c3c g     F .text	000000d8 close
000288e8 g     F .text	0000004c alt_avalon_i2c_tfr_cmd_fifo_threshold_get
0002c7ec g     O .rodata	00000400 logo
00026a6c g     F .text	00000084 alt_load
00027b80 g     F .text	0000013c alt_avalon_i2c_master_rx
0002027c g     F .text	00000070 DS1307_SetClockHalt



Disassembly of section .entry:

00020000 <__reset>:
 * Jump to the _start entry point in the .text section if reset code
 * is allowed or if optimizing for RTL simulation.
 */
#if defined(ALT_ALLOW_CODE_AT_RESET) || defined(ALT_SIM_OPTIMIZE)
    /* Jump to the _start entry point in the .text section. */
    movhi r1, %hi(_start)
   20000:	004000b4 	movhi	at,2
    ori r1, r1, %lo(_start)
   20004:	08408c14 	ori	at,at,560
    jmp r1
   20008:	0800683a 	jmp	at
	...

Disassembly of section .exceptions:

00020020 <alt_exception>:

#else /* ALT_EXCEPTION_STACK disabled */
        /* 
         * Reserve space on normal stack for registers about to be pushed.
         */
        addi  sp, sp, -76
   20020:	deffed04 	addi	sp,sp,-76
         * documentation for details).
         *
         * Leave a gap in the stack frame at 4(sp) for the muldiv handler to
         * store zero into.
         */
        stw   ra,  0(sp)
   20024:	dfc00015 	stw	ra,0(sp)
        stw   r1,   8(sp)
   20028:	d8400215 	stw	at,8(sp)
        stw   r2,  12(sp)
   2002c:	d8800315 	stw	r2,12(sp)
        stw   r3,  16(sp)
   20030:	d8c00415 	stw	r3,16(sp)
        stw   r4,  20(sp)
   20034:	d9000515 	stw	r4,20(sp)
        stw   r5,  24(sp)
   20038:	d9400615 	stw	r5,24(sp)
        stw   r6,  28(sp)
   2003c:	d9800715 	stw	r6,28(sp)
        stw   r7,  32(sp)
   20040:	d9c00815 	stw	r7,32(sp)
        rdctl r5, estatus   /* Read early to avoid usage stall */
   20044:	000b307a 	rdctl	r5,estatus
        stw   r8,  36(sp)
   20048:	da000915 	stw	r8,36(sp)
        stw   r9,  40(sp)
   2004c:	da400a15 	stw	r9,40(sp)
        stw   r10, 44(sp)
   20050:	da800b15 	stw	r10,44(sp)
        stw   r11, 48(sp)
   20054:	dac00c15 	stw	r11,48(sp)
        stw   r12, 52(sp)
   20058:	db000d15 	stw	r12,52(sp)
        stw   r13, 56(sp)
   2005c:	db400e15 	stw	r13,56(sp)
        stw   r14, 60(sp)
   20060:	db800f15 	stw	r14,60(sp)
        stw   r15, 64(sp)
   20064:	dbc01015 	stw	r15,64(sp)
        /*
         * ea-4 contains the address of the instruction being executed
         * when the exception occured. For interrupt exceptions, we will
         * will be re-issue the isntruction. Store it in 72(sp)
         */
        stw   r5,  68(sp)  /* estatus */
   20068:	d9401115 	stw	r5,68(sp)
        addi  r15, ea, -4  /* instruction that caused exception */
   2006c:	ebffff04 	addi	r15,ea,-4
        stw   r15,  72(sp)
   20070:	dbc01215 	stw	r15,72(sp)
#else
        /*
         * Test to see if the exception was a software exception or caused 
         * by an external interrupt, and vector accordingly.
         */
        rdctl r4, ipending
   20074:	0009313a 	rdctl	r4,ipending
        andi  r2, r5, 1
   20078:	2880004c 	andi	r2,r5,1
        beq   r2, zero, .Lnot_irq
   2007c:	10000326 	beq	r2,zero,2008c <alt_exception+0x6c>
        beq   r4, zero, .Lnot_irq
   20080:	20000226 	beq	r4,zero,2008c <alt_exception+0x6c>
        /*
         * Now that all necessary registers have been preserved, call 
         * alt_irq_handler() to process the interrupts.
         */

        call alt_irq_handler
   20084:	00200fc0 	call	200fc <alt_irq_handler>

        .section .exceptions.irqreturn, "xa"

        br    .Lexception_exit
   20088:	00000706 	br	200a8 <alt_exception+0x88>
         * upon completion, so we write ea (address of instruction *after*
         * the one where the exception occured) into 72(sp). The actual
         * instruction that caused the exception is written in r2, which these
         * handlers will utilize.
         */
        stw ea, 72(sp) /* EA is PC+4 so will skip over instruction causing exception */
   2008c:	df401215 	stw	ea,72(sp)
.Lunknown_16bit:
        addi.n r4, r4, 2 /* Need PC+2 to skip over instruction causing exception */
        stw r4, 72(sp)

#else /* CDX is not Enabled and all instructions are 32bits */
        ldw r2, -4(ea) /* Instruction value that caused exception */
   20090:	e8bfff17 	ldw	r2,-4(ea)
         * debugger is present) or go into an infinite loop since the
         * handling behavior is undefined; in that case we will not return here.
         */

        /* Load exception-causing address as first argument (r4) */
        addi   r4, ea, -4
   20094:	e93fff04 	addi	r4,ea,-4

        /* Call the instruction-exception entry */
        call   alt_instruction_exception_entry
   20098:	00201d00 	call	201d0 <alt_instruction_exception_entry>
         * instruction
         *
         * Return code was 0: Skip. The instruction after the exception is
         * already stored in 72(sp).
         */
        bne   r2, r0, .Lexception_exit
   2009c:	1000021e 	bne	r2,zero,200a8 <alt_exception+0x88>

        /*
         * Otherwise, modify 72(sp) to re-issue the instruction that caused the
         * exception.
         */
        addi  r15, ea, -4  /* instruction that caused exception */
   200a0:	ebffff04 	addi	r15,ea,-4
        stw   r15,  72(sp)
   200a4:	dbc01215 	stw	r15,72(sp)
        /* 
         * Restore the saved registers, so that all general purpose registers 
         * have been restored to their state at the time the interrupt occured.
         */

        ldw   r5,  68(sp)
   200a8:	d9401117 	ldw	r5,68(sp)
        ldw   ea,  72(sp)  /* This becomes the PC once eret is executed */
   200ac:	df401217 	ldw	ea,72(sp)
        ldw   ra,   0(sp)
   200b0:	dfc00017 	ldw	ra,0(sp)

        wrctl estatus, r5
   200b4:	2801707a 	wrctl	estatus,r5

        ldw   r1,   8(sp)
   200b8:	d8400217 	ldw	at,8(sp)
        ldw   r2,  12(sp)
   200bc:	d8800317 	ldw	r2,12(sp)
        ldw   r3,  16(sp)
   200c0:	d8c00417 	ldw	r3,16(sp)
        ldw   r4,  20(sp)
   200c4:	d9000517 	ldw	r4,20(sp)
        ldw   r5,  24(sp)
   200c8:	d9400617 	ldw	r5,24(sp)
        ldw   r6,  28(sp)
   200cc:	d9800717 	ldw	r6,28(sp)
        ldw   r7,  32(sp)
   200d0:	d9c00817 	ldw	r7,32(sp)

#if defined(ALT_EXCEPTION_STACK) && defined(ALT_STACK_CHECK)
        ldw   et, %gprel(alt_exception_old_stack_limit)(gp)
#endif

        ldw   r8,  36(sp)
   200d4:	da000917 	ldw	r8,36(sp)
        ldw   r9,  40(sp)
   200d8:	da400a17 	ldw	r9,40(sp)
        ldw   r10, 44(sp)
   200dc:	da800b17 	ldw	r10,44(sp)
        ldw   r11, 48(sp)
   200e0:	dac00c17 	ldw	r11,48(sp)
        ldw   r12, 52(sp)
   200e4:	db000d17 	ldw	r12,52(sp)
        ldw   r13, 56(sp)
   200e8:	db400e17 	ldw	r13,56(sp)
        ldw   r14, 60(sp)
   200ec:	db800f17 	ldw	r14,60(sp)
        ldw   r15, 64(sp)
   200f0:	dbc01017 	ldw	r15,64(sp)
        stw   et, %gprel(alt_stack_limit_value)(gp)
        stw   zero, %gprel(alt_exception_old_stack_limit)(gp)
#endif /* ALT_STACK_CHECK */
        ldw   sp,  76(sp)
#else /* ALT_EXCEPTION_STACK disabled */
        addi  sp, sp, 76
   200f4:	dec01304 	addi	sp,sp,76

        /*
         * Return to the interrupted instruction.
         */

        eret
   200f8:	ef80083a 	eret

000200fc <alt_irq_handler>:
 * instruction is present if the macro ALT_CI_INTERRUPT_VECTOR defined.
 */

void alt_irq_handler (void) __attribute__ ((section (".exceptions")));
void alt_irq_handler (void)
{
   200fc:	defff904 	addi	sp,sp,-28
   20100:	dfc00615 	stw	ra,24(sp)
   20104:	df000515 	stw	fp,20(sp)
   20108:	df000504 	addi	fp,sp,20
  
  /*
   * Notify the operating system that we are at interrupt level.
   */ 
  
  ALT_OS_INT_ENTER();
   2010c:	0001883a 	nop
#ifndef NIOS2_EIC_PRESENT
static ALT_INLINE alt_u32 ALT_ALWAYS_INLINE alt_irq_pending (void)
{
  alt_u32 active;

  NIOS2_READ_IPENDING (active);
   20110:	0005313a 	rdctl	r2,ipending
   20114:	e0bffe15 	stw	r2,-8(fp)

  return active;
   20118:	e0bffe17 	ldw	r2,-8(fp)
   * Consider the case where the high priority interupt is asserted during
   * the interrupt entry sequence for a lower priority interrupt to see why
   * this is the case.
   */

  active = alt_irq_pending ();
   2011c:	e0bffb15 	stw	r2,-20(fp)

  do
  {
    i = 0;
   20120:	e03ffd15 	stw	zero,-12(fp)
    mask = 1;
   20124:	00800044 	movi	r2,1
   20128:	e0bffc15 	stw	r2,-16(fp)
     * called to clear the interrupt condition.
     */

    do
    {
      if (active & mask)
   2012c:	e0fffb17 	ldw	r3,-20(fp)
   20130:	e0bffc17 	ldw	r2,-16(fp)
   20134:	1884703a 	and	r2,r3,r2
   20138:	10001426 	beq	r2,zero,2018c <alt_irq_handler+0x90>
      { 
#ifdef ALT_ENHANCED_INTERRUPT_API_PRESENT
        alt_irq[i].handler(alt_irq[i].context); 
   2013c:	008000f4 	movhi	r2,3
   20140:	10812804 	addi	r2,r2,1184
   20144:	e0fffd17 	ldw	r3,-12(fp)
   20148:	180690fa 	slli	r3,r3,3
   2014c:	10c5883a 	add	r2,r2,r3
   20150:	10c00017 	ldw	r3,0(r2)
   20154:	008000f4 	movhi	r2,3
   20158:	10812804 	addi	r2,r2,1184
   2015c:	e13ffd17 	ldw	r4,-12(fp)
   20160:	200890fa 	slli	r4,r4,3
   20164:	1105883a 	add	r2,r2,r4
   20168:	10800104 	addi	r2,r2,4
   2016c:	10800017 	ldw	r2,0(r2)
   20170:	1009883a 	mov	r4,r2
   20174:	183ee83a 	callr	r3
#else
        alt_irq[i].handler(alt_irq[i].context, i); 
#endif
        break;
   20178:	0001883a 	nop
#ifndef NIOS2_EIC_PRESENT
static ALT_INLINE alt_u32 ALT_ALWAYS_INLINE alt_irq_pending (void)
{
  alt_u32 active;

  NIOS2_READ_IPENDING (active);
   2017c:	0005313a 	rdctl	r2,ipending
   20180:	e0bfff15 	stw	r2,-4(fp)

  return active;
   20184:	e0bfff17 	ldw	r2,-4(fp)
   20188:	00000706 	br	201a8 <alt_irq_handler+0xac>
      }
      mask <<= 1;
   2018c:	e0bffc17 	ldw	r2,-16(fp)
   20190:	1085883a 	add	r2,r2,r2
   20194:	e0bffc15 	stw	r2,-16(fp)
      i++;
   20198:	e0bffd17 	ldw	r2,-12(fp)
   2019c:	10800044 	addi	r2,r2,1
   201a0:	e0bffd15 	stw	r2,-12(fp)

    } while (1);
   201a4:	003fe106 	br	2012c <__alt_data_end+0xfffe012c>

    active = alt_irq_pending ();
   201a8:	e0bffb15 	stw	r2,-20(fp)
    
  } while (active);
   201ac:	e0bffb17 	ldw	r2,-20(fp)
   201b0:	103fdb1e 	bne	r2,zero,20120 <__alt_data_end+0xfffe0120>

  /*
   * Notify the operating system that interrupt processing is complete.
   */ 

  ALT_OS_INT_EXIT();
   201b4:	0001883a 	nop
}
   201b8:	0001883a 	nop
   201bc:	e037883a 	mov	sp,fp
   201c0:	dfc00117 	ldw	ra,4(sp)
   201c4:	df000017 	ldw	fp,0(sp)
   201c8:	dec00204 	addi	sp,sp,8
   201cc:	f800283a 	ret

000201d0 <alt_instruction_exception_entry>:
 * that handler if it has been registered. Absent a handler, it will
 * break break or hang as discussed below.
 */
int 
alt_instruction_exception_entry (alt_u32 exception_pc)
{
   201d0:	defffb04 	addi	sp,sp,-20
   201d4:	dfc00415 	stw	ra,16(sp)
   201d8:	df000315 	stw	fp,12(sp)
   201dc:	df000304 	addi	fp,sp,12
   201e0:	e13fff15 	stw	r4,-4(fp)
  cause = ( (cause & NIOS2_EXCEPTION_REG_CAUSE_MASK) >>
              NIOS2_EXCEPTION_REG_CAUSE_OFST );

  NIOS2_READ_BADADDR(badaddr);
#else
  cause = NIOS2_EXCEPTION_CAUSE_NOT_PRESENT;
   201e4:	00bfffc4 	movi	r2,-1
   201e8:	e0bffd15 	stw	r2,-12(fp)
  badaddr = 0;
   201ec:	e03ffe15 	stw	zero,-8(fp)
#endif /* NIOS2_HAS_EXTRA_EXCEPTION_INFO */

  if(alt_instruction_exception_handler) {
   201f0:	d0a0e717 	ldw	r2,-31844(gp)
   201f4:	10000726 	beq	r2,zero,20214 <alt_instruction_exception_entry+0x44>
     * Call handler. Its return value indicates whether the exception-causing
     * instruction should be re-issued. The code that called us,
     * alt_eceptions_entry.S, will look at this value and adjust the ea
     * register as necessary
     */
    return alt_instruction_exception_handler(cause, exception_pc, badaddr);
   201f8:	d0a0e717 	ldw	r2,-31844(gp)
   201fc:	e0fffd17 	ldw	r3,-12(fp)
   20200:	e1bffe17 	ldw	r6,-8(fp)
   20204:	e17fff17 	ldw	r5,-4(fp)
   20208:	1809883a 	mov	r4,r3
   2020c:	103ee83a 	callr	r2
   20210:	00000206 	br	2021c <alt_instruction_exception_entry+0x4c>
   *    (a peripheral which negates its interrupt output before its
   *    interrupt handler has been executed will cause spurious interrupts)
   */
  else {
#ifdef NIOS2_HAS_DEBUG_STUB
    NIOS2_BREAK();
   20214:	003da03a 	break	0
      ;
#endif /* NIOS2_HAS_DEBUG_STUB */
  }

  /* We should not get here. Remove compiler warning. */
  return NIOS2_EXCEPTION_RETURN_REISSUE_INST;
   20218:	0005883a 	mov	r2,zero
}
   2021c:	e037883a 	mov	sp,fp
   20220:	dfc00117 	ldw	ra,4(sp)
   20224:	df000017 	ldw	fp,0(sp)
   20228:	dec00204 	addi	sp,sp,8
   2022c:	f800283a 	ret

Disassembly of section .text:

00020230 <_start>:

    /*
     * Now that the caches are initialized, set up the stack pointer and global pointer.
     * The values provided by the linker are assumed to be correctly aligned.
     */
    movhi sp, %hi(__alt_stack_pointer)
   20230:	06c00134 	movhi	sp,4
    ori sp, sp, %lo(__alt_stack_pointer)
   20234:	dec00014 	ori	sp,sp,0
    movhi gp, %hi(_gp)
   20238:	068000f4 	movhi	gp,3
    ori gp, gp, %lo(_gp)
   2023c:	d69f4014 	ori	gp,gp,32000
     * section aren't defined until alt_load() has been called).
     */
    mov   et, zero
#endif

    call alt_load
   20240:	0026a6c0 	call	26a6c <alt_load>

    /* Log that alt_main is about to be called. */
    ALT_LOG_PUTS(alt_log_msg_alt_main)

    /* Call the C entry point. It should never return. */
    call alt_main
   20244:	0026af00 	call	26af0 <alt_main>

00020248 <alt_after_alt_main>:

    /* Wait in infinite loop in case alt_main does return. */
alt_after_alt_main:
    br alt_after_alt_main
   20248:	003fff06 	br	20248 <__alt_data_end+0xfffe0248>

0002024c <DS1307_Init>:
	
/**
 * @brief Initializes the DS1307 module. Sets clock halt bit to 0 to start timing.
 * @param hi2c User I2C handle pointer.
 */
void DS1307_Init() {
   2024c:	defffe04 	addi	sp,sp,-8
   20250:	dfc00115 	stw	ra,4(sp)
   20254:	df000015 	stw	fp,0(sp)
   20258:	d839883a 	mov	fp,sp
	DS1307_SetClockHalt(0);
   2025c:	0009883a 	mov	r4,zero
   20260:	002027c0 	call	2027c <DS1307_SetClockHalt>
}
   20264:	0001883a 	nop
   20268:	e037883a 	mov	sp,fp
   2026c:	dfc00117 	ldw	ra,4(sp)
   20270:	df000017 	ldw	fp,0(sp)
   20274:	dec00204 	addi	sp,sp,8
   20278:	f800283a 	ret

0002027c <DS1307_SetClockHalt>:

/**
 * @brief Sets clock halt bit.
 * @param halt Clock halt bit to set, 0 or 1. 0 to start timing, 0 to stop.
 */
void DS1307_SetClockHalt(uint8_t halt) {
   2027c:	defffc04 	addi	sp,sp,-16
   20280:	dfc00315 	stw	ra,12(sp)
   20284:	df000215 	stw	fp,8(sp)
   20288:	df000204 	addi	fp,sp,8
   2028c:	2005883a 	mov	r2,r4
   20290:	e0bfff05 	stb	r2,-4(fp)
	uint8_t ch = (halt ? 1 << 7 : 0);
   20294:	e0bfff03 	ldbu	r2,-4(fp)
   20298:	10000226 	beq	r2,zero,202a4 <DS1307_SetClockHalt+0x28>
   2029c:	00bfe004 	movi	r2,-128
   202a0:	00000106 	br	202a8 <DS1307_SetClockHalt+0x2c>
   202a4:	0005883a 	mov	r2,zero
   202a8:	e0bffe05 	stb	r2,-8(fp)
	DS1307_SetRegByte(DS1307_REG_SECOND, ch | (DS1307_GetRegByte(DS1307_REG_SECOND) & 0x7f));
   202ac:	0009883a 	mov	r4,zero
   202b0:	00203900 	call	20390 <DS1307_GetRegByte>
   202b4:	10801fcc 	andi	r2,r2,127
   202b8:	1007883a 	mov	r3,r2
   202bc:	e0bffe03 	ldbu	r2,-8(fp)
   202c0:	1884b03a 	or	r2,r3,r2
   202c4:	10803fcc 	andi	r2,r2,255
   202c8:	100b883a 	mov	r5,r2
   202cc:	0009883a 	mov	r4,zero
   202d0:	00203200 	call	20320 <DS1307_SetRegByte>
}
   202d4:	0001883a 	nop
   202d8:	e037883a 	mov	sp,fp
   202dc:	dfc00117 	ldw	ra,4(sp)
   202e0:	df000017 	ldw	fp,0(sp)
   202e4:	dec00204 	addi	sp,sp,8
   202e8:	f800283a 	ret

000202ec <DS1307_GetClockHalt>:

/**
 * @brief Gets clock halt bit.
 * @return Clock halt bit, 0 or 1.
 */
uint8_t DS1307_GetClockHalt(void) {
   202ec:	defffe04 	addi	sp,sp,-8
   202f0:	dfc00115 	stw	ra,4(sp)
   202f4:	df000015 	stw	fp,0(sp)
   202f8:	d839883a 	mov	fp,sp
	return (DS1307_GetRegByte(DS1307_REG_SECOND) & 0x80) >> 7;
   202fc:	0009883a 	mov	r4,zero
   20300:	00203900 	call	20390 <DS1307_GetRegByte>
   20304:	10803fcc 	andi	r2,r2,255
   20308:	1004d1fa 	srli	r2,r2,7
}
   2030c:	e037883a 	mov	sp,fp
   20310:	dfc00117 	ldw	ra,4(sp)
   20314:	df000017 	ldw	fp,0(sp)
   20318:	dec00204 	addi	sp,sp,8
   2031c:	f800283a 	ret

00020320 <DS1307_SetRegByte>:
/**
 * @brief Sets the byte in the designated DS1307 register to value.
 * @param regAddr Register address to write.
 * @param val Value to set, 0 to 255.
 */
void DS1307_SetRegByte(uint8_t regAddr, uint8_t val) {
   20320:	defffb04 	addi	sp,sp,-20
   20324:	dfc00415 	stw	ra,16(sp)
   20328:	df000315 	stw	fp,12(sp)
   2032c:	df000304 	addi	fp,sp,12
   20330:	2007883a 	mov	r3,r4
   20334:	2805883a 	mov	r2,r5
   20338:	e0fffe05 	stb	r3,-8(fp)
   2033c:	e0bfff05 	stb	r2,-4(fp)
	uint8_t bytes[2] = { regAddr, val };
   20340:	e0bffe03 	ldbu	r2,-8(fp)
   20344:	e0bffd05 	stb	r2,-12(fp)
   20348:	e0bfff03 	ldbu	r2,-4(fp)
   2034c:	e0bffd45 	stb	r2,-11(fp)
	alt_avalon_i2c_master_target_set(DS1307_I2C,DS1307_I2C_ADDR);
   20350:	d0a0e117 	ldw	r2,-31868(gp)
   20354:	01401a04 	movi	r5,104
   20358:	1009883a 	mov	r4,r2
   2035c:	00278900 	call	27890 <alt_avalon_i2c_master_target_set>
	alt_avalon_i2c_master_tx(DS1307_I2C, bytes, 2,
   20360:	d0a0e117 	ldw	r2,-31868(gp)
   20364:	000f883a 	mov	r7,zero
   20368:	01800084 	movi	r6,2
   2036c:	e17ffd04 	addi	r5,fp,-12
   20370:	1009883a 	mov	r4,r2
   20374:	0027a980 	call	27a98 <alt_avalon_i2c_master_tx>
					ALT_AVALON_I2C_NO_INTERRUPTS);
}
   20378:	0001883a 	nop
   2037c:	e037883a 	mov	sp,fp
   20380:	dfc00117 	ldw	ra,4(sp)
   20384:	df000017 	ldw	fp,0(sp)
   20388:	dec00204 	addi	sp,sp,8
   2038c:	f800283a 	ret

00020390 <DS1307_GetRegByte>:
/**
 * @brief Gets the byte in the designated DS1307 register.
 * @param regAddr Register address to read.
 * @return Value stored in the register, 0 to 255.
 */
uint8_t DS1307_GetRegByte(uint8_t regAddr) {
   20390:	defffc04 	addi	sp,sp,-16
   20394:	dfc00315 	stw	ra,12(sp)
   20398:	df000215 	stw	fp,8(sp)
   2039c:	df000204 	addi	fp,sp,8
   203a0:	2005883a 	mov	r2,r4
   203a4:	e0bfff05 	stb	r2,-4(fp)
	uint8_t val;
	alt_avalon_i2c_master_target_set(DS1307_I2C,DS1307_I2C_ADDR);
   203a8:	d0a0e117 	ldw	r2,-31868(gp)
   203ac:	01401a04 	movi	r5,104
   203b0:	1009883a 	mov	r4,r2
   203b4:	00278900 	call	27890 <alt_avalon_i2c_master_target_set>
	alt_avalon_i2c_master_tx(DS1307_I2C, &regAddr, 1,
   203b8:	d0a0e117 	ldw	r2,-31868(gp)
   203bc:	e0ffff04 	addi	r3,fp,-4
   203c0:	000f883a 	mov	r7,zero
   203c4:	01800044 	movi	r6,1
   203c8:	180b883a 	mov	r5,r3
   203cc:	1009883a 	mov	r4,r2
   203d0:	0027a980 	call	27a98 <alt_avalon_i2c_master_tx>
					ALT_AVALON_I2C_NO_INTERRUPTS);
	alt_avalon_i2c_master_rx(DS1307_I2C, &val, 1,
   203d4:	d0a0e117 	ldw	r2,-31868(gp)
   203d8:	000f883a 	mov	r7,zero
   203dc:	01800044 	movi	r6,1
   203e0:	e17ffe04 	addi	r5,fp,-8
   203e4:	1009883a 	mov	r4,r2
   203e8:	0027b800 	call	27b80 <alt_avalon_i2c_master_rx>
	       								ALT_AVALON_I2C_NO_INTERRUPTS);
	return val;
   203ec:	e0bffe03 	ldbu	r2,-8(fp)
}
   203f0:	e037883a 	mov	sp,fp
   203f4:	dfc00117 	ldw	ra,4(sp)
   203f8:	df000017 	ldw	fp,0(sp)
   203fc:	dec00204 	addi	sp,sp,8
   20400:	f800283a 	ret

00020404 <DS1307_SetEnableSquareWave>:

/**
 * @brief Toggle square wave output on pin 7.
 * @param mode DS1307_ENABLED (1) or DS1307_DISABLED (0);
 */
void DS1307_SetEnableSquareWave(DS1307_SquareWaveEnable mode){
   20404:	defffc04 	addi	sp,sp,-16
   20408:	dfc00315 	stw	ra,12(sp)
   2040c:	df000215 	stw	fp,8(sp)
   20410:	df000204 	addi	fp,sp,8
   20414:	e13fff15 	stw	r4,-4(fp)
	uint8_t controlReg = DS1307_GetRegByte(DS1307_REG_CONTROL);
   20418:	010001c4 	movi	r4,7
   2041c:	00203900 	call	20390 <DS1307_GetRegByte>
   20420:	e0bffe05 	stb	r2,-8(fp)
	uint8_t newControlReg = (controlReg & ~(1 << 4)) | ((mode & 1) << 4);
   20424:	e0fffe03 	ldbu	r3,-8(fp)
   20428:	00bffbc4 	movi	r2,-17
   2042c:	1884703a 	and	r2,r3,r2
   20430:	1007883a 	mov	r3,r2
   20434:	e0bfff17 	ldw	r2,-4(fp)
   20438:	1080004c 	andi	r2,r2,1
   2043c:	1004913a 	slli	r2,r2,4
   20440:	1884b03a 	or	r2,r3,r2
   20444:	e0bffe45 	stb	r2,-7(fp)
	DS1307_SetRegByte(DS1307_REG_CONTROL, newControlReg);
   20448:	e0bffe43 	ldbu	r2,-7(fp)
   2044c:	100b883a 	mov	r5,r2
   20450:	010001c4 	movi	r4,7
   20454:	00203200 	call	20320 <DS1307_SetRegByte>
}
   20458:	0001883a 	nop
   2045c:	e037883a 	mov	sp,fp
   20460:	dfc00117 	ldw	ra,4(sp)
   20464:	df000017 	ldw	fp,0(sp)
   20468:	dec00204 	addi	sp,sp,8
   2046c:	f800283a 	ret

00020470 <DS1307_SetInterruptRate>:

/**
 * @brief Set square wave output frequency.
 * @param rate DS1307_1HZ (0b00), DS1307_4096HZ (0b01), DS1307_8192HZ (0b10) or DS1307_32768HZ (0b11).
 */
void DS1307_SetInterruptRate(DS1307_Rate rate){
   20470:	defffc04 	addi	sp,sp,-16
   20474:	dfc00315 	stw	ra,12(sp)
   20478:	df000215 	stw	fp,8(sp)
   2047c:	df000204 	addi	fp,sp,8
   20480:	e13fff15 	stw	r4,-4(fp)
	uint8_t controlReg = DS1307_GetRegByte(DS1307_REG_CONTROL);
   20484:	010001c4 	movi	r4,7
   20488:	00203900 	call	20390 <DS1307_GetRegByte>
   2048c:	e0bffe05 	stb	r2,-8(fp)
	uint8_t newControlReg = (controlReg & ~0x03) | rate;
   20490:	e0fffe03 	ldbu	r3,-8(fp)
   20494:	00bfff04 	movi	r2,-4
   20498:	1884703a 	and	r2,r3,r2
   2049c:	1007883a 	mov	r3,r2
   204a0:	e0bfff17 	ldw	r2,-4(fp)
   204a4:	1884b03a 	or	r2,r3,r2
   204a8:	e0bffe45 	stb	r2,-7(fp)
	DS1307_SetRegByte(DS1307_REG_CONTROL, newControlReg);
   204ac:	e0bffe43 	ldbu	r2,-7(fp)
   204b0:	100b883a 	mov	r5,r2
   204b4:	010001c4 	movi	r4,7
   204b8:	00203200 	call	20320 <DS1307_SetRegByte>
}
   204bc:	0001883a 	nop
   204c0:	e037883a 	mov	sp,fp
   204c4:	dfc00117 	ldw	ra,4(sp)
   204c8:	df000017 	ldw	fp,0(sp)
   204cc:	dec00204 	addi	sp,sp,8
   204d0:	f800283a 	ret

000204d4 <DS1307_GetDayOfWeek>:

/**
 * @brief Gets the current day of week.
 * @return Days from last Sunday, 0 to 6.
 */
uint8_t DS1307_GetDayOfWeek(void) {
   204d4:	defffe04 	addi	sp,sp,-8
   204d8:	dfc00115 	stw	ra,4(sp)
   204dc:	df000015 	stw	fp,0(sp)
   204e0:	d839883a 	mov	fp,sp
	return DS1307_DecodeBCD(DS1307_GetRegByte(DS1307_REG_DOW));
   204e4:	010000c4 	movi	r4,3
   204e8:	00203900 	call	20390 <DS1307_GetRegByte>
   204ec:	10803fcc 	andi	r2,r2,255
   204f0:	1009883a 	mov	r4,r2
   204f4:	002099c0 	call	2099c <DS1307_DecodeBCD>
}
   204f8:	e037883a 	mov	sp,fp
   204fc:	dfc00117 	ldw	ra,4(sp)
   20500:	df000017 	ldw	fp,0(sp)
   20504:	dec00204 	addi	sp,sp,8
   20508:	f800283a 	ret

0002050c <DS1307_GetDate>:

/**
 * @brief Gets the current day of month.
 * @return Day of month, 1 to 31.
 */
uint8_t DS1307_GetDate(void) {
   2050c:	defffe04 	addi	sp,sp,-8
   20510:	dfc00115 	stw	ra,4(sp)
   20514:	df000015 	stw	fp,0(sp)
   20518:	d839883a 	mov	fp,sp
	return DS1307_DecodeBCD(DS1307_GetRegByte(DS1307_REG_DATE));
   2051c:	01000104 	movi	r4,4
   20520:	00203900 	call	20390 <DS1307_GetRegByte>
   20524:	10803fcc 	andi	r2,r2,255
   20528:	1009883a 	mov	r4,r2
   2052c:	002099c0 	call	2099c <DS1307_DecodeBCD>
}
   20530:	e037883a 	mov	sp,fp
   20534:	dfc00117 	ldw	ra,4(sp)
   20538:	df000017 	ldw	fp,0(sp)
   2053c:	dec00204 	addi	sp,sp,8
   20540:	f800283a 	ret

00020544 <DS1307_GetMonth>:

/**
 * @brief Gets the current month.
 * @return Month, 1 to 12.
 */
uint8_t DS1307_GetMonth(void) {
   20544:	defffe04 	addi	sp,sp,-8
   20548:	dfc00115 	stw	ra,4(sp)
   2054c:	df000015 	stw	fp,0(sp)
   20550:	d839883a 	mov	fp,sp
	return DS1307_DecodeBCD(DS1307_GetRegByte(DS1307_REG_MONTH));
   20554:	01000144 	movi	r4,5
   20558:	00203900 	call	20390 <DS1307_GetRegByte>
   2055c:	10803fcc 	andi	r2,r2,255
   20560:	1009883a 	mov	r4,r2
   20564:	002099c0 	call	2099c <DS1307_DecodeBCD>
}
   20568:	e037883a 	mov	sp,fp
   2056c:	dfc00117 	ldw	ra,4(sp)
   20570:	df000017 	ldw	fp,0(sp)
   20574:	dec00204 	addi	sp,sp,8
   20578:	f800283a 	ret

0002057c <DS1307_GetYear>:

/**
 * @brief Gets the current year.
 * @return Year, 2000 to 2099.
 */
uint16_t DS1307_GetYear(void) {
   2057c:	defffd04 	addi	sp,sp,-12
   20580:	dfc00215 	stw	ra,8(sp)
   20584:	df000115 	stw	fp,4(sp)
   20588:	df000104 	addi	fp,sp,4
	uint16_t cen = DS1307_GetRegByte(DS1307_REG_CENT) * 100;
   2058c:	01000404 	movi	r4,16
   20590:	00203900 	call	20390 <DS1307_GetRegByte>
   20594:	10803fcc 	andi	r2,r2,255
   20598:	01401904 	movi	r5,100
   2059c:	1009883a 	mov	r4,r2
   205a0:	0022c300 	call	22c30 <__mulsi3>
   205a4:	e0bfff0d 	sth	r2,-4(fp)
	return DS1307_DecodeBCD(DS1307_GetRegByte(DS1307_REG_YEAR)) + cen;
   205a8:	01000184 	movi	r4,6
   205ac:	00203900 	call	20390 <DS1307_GetRegByte>
   205b0:	10803fcc 	andi	r2,r2,255
   205b4:	1009883a 	mov	r4,r2
   205b8:	002099c0 	call	2099c <DS1307_DecodeBCD>
   205bc:	10c03fcc 	andi	r3,r2,255
   205c0:	e0bfff0b 	ldhu	r2,-4(fp)
   205c4:	1885883a 	add	r2,r3,r2
}
   205c8:	e037883a 	mov	sp,fp
   205cc:	dfc00117 	ldw	ra,4(sp)
   205d0:	df000017 	ldw	fp,0(sp)
   205d4:	dec00204 	addi	sp,sp,8
   205d8:	f800283a 	ret

000205dc <DS1307_GetHour>:

/**
 * @brief Gets the current hour in 24h format.
 * @return Hour in 24h format, 0 to 23.
 */
uint8_t DS1307_GetHour(void) {
   205dc:	defffe04 	addi	sp,sp,-8
   205e0:	dfc00115 	stw	ra,4(sp)
   205e4:	df000015 	stw	fp,0(sp)
   205e8:	d839883a 	mov	fp,sp
	return DS1307_DecodeBCD(DS1307_GetRegByte(DS1307_REG_HOUR) & 0x3f);
   205ec:	01000084 	movi	r4,2
   205f0:	00203900 	call	20390 <DS1307_GetRegByte>
   205f4:	10803fcc 	andi	r2,r2,255
   205f8:	10800fcc 	andi	r2,r2,63
   205fc:	1009883a 	mov	r4,r2
   20600:	002099c0 	call	2099c <DS1307_DecodeBCD>
}
   20604:	e037883a 	mov	sp,fp
   20608:	dfc00117 	ldw	ra,4(sp)
   2060c:	df000017 	ldw	fp,0(sp)
   20610:	dec00204 	addi	sp,sp,8
   20614:	f800283a 	ret

00020618 <DS1307_GetMinute>:

/**
 * @brief Gets the current minute.
 * @return Minute, 0 to 59.
 */
uint8_t DS1307_GetMinute(void) {
   20618:	defffe04 	addi	sp,sp,-8
   2061c:	dfc00115 	stw	ra,4(sp)
   20620:	df000015 	stw	fp,0(sp)
   20624:	d839883a 	mov	fp,sp
	return DS1307_DecodeBCD(DS1307_GetRegByte(DS1307_REG_MINUTE));
   20628:	01000044 	movi	r4,1
   2062c:	00203900 	call	20390 <DS1307_GetRegByte>
   20630:	10803fcc 	andi	r2,r2,255
   20634:	1009883a 	mov	r4,r2
   20638:	002099c0 	call	2099c <DS1307_DecodeBCD>
}
   2063c:	e037883a 	mov	sp,fp
   20640:	dfc00117 	ldw	ra,4(sp)
   20644:	df000017 	ldw	fp,0(sp)
   20648:	dec00204 	addi	sp,sp,8
   2064c:	f800283a 	ret

00020650 <DS1307_GetSecond>:

/**
 * @brief Gets the current second. Clock halt bit not included.
 * @return Second, 0 to 59.
 */
uint8_t DS1307_GetSecond(void) {
   20650:	defffe04 	addi	sp,sp,-8
   20654:	dfc00115 	stw	ra,4(sp)
   20658:	df000015 	stw	fp,0(sp)
   2065c:	d839883a 	mov	fp,sp
	return DS1307_DecodeBCD(DS1307_GetRegByte(DS1307_REG_SECOND) & 0x7f);
   20660:	0009883a 	mov	r4,zero
   20664:	00203900 	call	20390 <DS1307_GetRegByte>
   20668:	10803fcc 	andi	r2,r2,255
   2066c:	10801fcc 	andi	r2,r2,127
   20670:	1009883a 	mov	r4,r2
   20674:	002099c0 	call	2099c <DS1307_DecodeBCD>
}
   20678:	e037883a 	mov	sp,fp
   2067c:	dfc00117 	ldw	ra,4(sp)
   20680:	df000017 	ldw	fp,0(sp)
   20684:	dec00204 	addi	sp,sp,8
   20688:	f800283a 	ret

0002068c <DS1307_GetTimeZoneHour>:
/**
 * @brief Gets the stored UTC hour offset.
 * @note  UTC offset is not updated automatically.
 * @return UTC hour offset, -12 to 12.
 */
int8_t DS1307_GetTimeZoneHour(void) {
   2068c:	defffe04 	addi	sp,sp,-8
   20690:	dfc00115 	stw	ra,4(sp)
   20694:	df000015 	stw	fp,0(sp)
   20698:	d839883a 	mov	fp,sp
	return DS1307_GetRegByte(DS1307_REG_UTC_HR);
   2069c:	01000204 	movi	r4,8
   206a0:	00203900 	call	20390 <DS1307_GetRegByte>
}
   206a4:	e037883a 	mov	sp,fp
   206a8:	dfc00117 	ldw	ra,4(sp)
   206ac:	df000017 	ldw	fp,0(sp)
   206b0:	dec00204 	addi	sp,sp,8
   206b4:	f800283a 	ret

000206b8 <DS1307_GetTimeZoneMin>:
/**
 * @brief Gets the stored UTC minute offset.
 * @note  UTC offset is not updated automatically.
 * @return UTC time zone, 0 to 59.
 */
uint8_t DS1307_GetTimeZoneMin(void) {
   206b8:	defffe04 	addi	sp,sp,-8
   206bc:	dfc00115 	stw	ra,4(sp)
   206c0:	df000015 	stw	fp,0(sp)
   206c4:	d839883a 	mov	fp,sp
	return DS1307_GetRegByte(DS1307_REG_UTC_MIN);
   206c8:	01000244 	movi	r4,9
   206cc:	00203900 	call	20390 <DS1307_GetRegByte>
}
   206d0:	e037883a 	mov	sp,fp
   206d4:	dfc00117 	ldw	ra,4(sp)
   206d8:	df000017 	ldw	fp,0(sp)
   206dc:	dec00204 	addi	sp,sp,8
   206e0:	f800283a 	ret

000206e4 <DS1307_SetDayOfWeek>:

/**
 * @brief Sets the current day of week.
 * @param dayOfWeek Days since last Sunday, 0 to 6.
 */
void DS1307_SetDayOfWeek(uint8_t dayOfWeek) {
   206e4:	defffd04 	addi	sp,sp,-12
   206e8:	dfc00215 	stw	ra,8(sp)
   206ec:	df000115 	stw	fp,4(sp)
   206f0:	df000104 	addi	fp,sp,4
   206f4:	2005883a 	mov	r2,r4
   206f8:	e0bfff05 	stb	r2,-4(fp)
	DS1307_SetRegByte(DS1307_REG_DOW, DS1307_EncodeBCD(dayOfWeek));
   206fc:	e0bfff03 	ldbu	r2,-4(fp)
   20700:	1009883a 	mov	r4,r2
   20704:	00209ec0 	call	209ec <DS1307_EncodeBCD>
   20708:	10803fcc 	andi	r2,r2,255
   2070c:	100b883a 	mov	r5,r2
   20710:	010000c4 	movi	r4,3
   20714:	00203200 	call	20320 <DS1307_SetRegByte>
}
   20718:	0001883a 	nop
   2071c:	e037883a 	mov	sp,fp
   20720:	dfc00117 	ldw	ra,4(sp)
   20724:	df000017 	ldw	fp,0(sp)
   20728:	dec00204 	addi	sp,sp,8
   2072c:	f800283a 	ret

00020730 <DS1307_SetDate>:

/**
 * @brief Sets the current day of month.
 * @param date Day of month, 1 to 31.
 */
void DS1307_SetDate(uint8_t date) {
   20730:	defffd04 	addi	sp,sp,-12
   20734:	dfc00215 	stw	ra,8(sp)
   20738:	df000115 	stw	fp,4(sp)
   2073c:	df000104 	addi	fp,sp,4
   20740:	2005883a 	mov	r2,r4
   20744:	e0bfff05 	stb	r2,-4(fp)
	DS1307_SetRegByte(DS1307_REG_DATE, DS1307_EncodeBCD(date));
   20748:	e0bfff03 	ldbu	r2,-4(fp)
   2074c:	1009883a 	mov	r4,r2
   20750:	00209ec0 	call	209ec <DS1307_EncodeBCD>
   20754:	10803fcc 	andi	r2,r2,255
   20758:	100b883a 	mov	r5,r2
   2075c:	01000104 	movi	r4,4
   20760:	00203200 	call	20320 <DS1307_SetRegByte>
}
   20764:	0001883a 	nop
   20768:	e037883a 	mov	sp,fp
   2076c:	dfc00117 	ldw	ra,4(sp)
   20770:	df000017 	ldw	fp,0(sp)
   20774:	dec00204 	addi	sp,sp,8
   20778:	f800283a 	ret

0002077c <DS1307_SetMonth>:

/**
 * @brief Sets the current month.
 * @param month Month, 1 to 12.
 */
void DS1307_SetMonth(uint8_t month) {
   2077c:	defffd04 	addi	sp,sp,-12
   20780:	dfc00215 	stw	ra,8(sp)
   20784:	df000115 	stw	fp,4(sp)
   20788:	df000104 	addi	fp,sp,4
   2078c:	2005883a 	mov	r2,r4
   20790:	e0bfff05 	stb	r2,-4(fp)
	DS1307_SetRegByte(DS1307_REG_MONTH, DS1307_EncodeBCD(month));
   20794:	e0bfff03 	ldbu	r2,-4(fp)
   20798:	1009883a 	mov	r4,r2
   2079c:	00209ec0 	call	209ec <DS1307_EncodeBCD>
   207a0:	10803fcc 	andi	r2,r2,255
   207a4:	100b883a 	mov	r5,r2
   207a8:	01000144 	movi	r4,5
   207ac:	00203200 	call	20320 <DS1307_SetRegByte>
}
   207b0:	0001883a 	nop
   207b4:	e037883a 	mov	sp,fp
   207b8:	dfc00117 	ldw	ra,4(sp)
   207bc:	df000017 	ldw	fp,0(sp)
   207c0:	dec00204 	addi	sp,sp,8
   207c4:	f800283a 	ret

000207c8 <DS1307_SetYear>:

/**
 * @brief Sets the current year.
 * @param year Year, 2000 to 2099.
 */
void DS1307_SetYear(uint16_t year) {
   207c8:	defffd04 	addi	sp,sp,-12
   207cc:	dfc00215 	stw	ra,8(sp)
   207d0:	df000115 	stw	fp,4(sp)
   207d4:	df000104 	addi	fp,sp,4
   207d8:	2005883a 	mov	r2,r4
   207dc:	e0bfff0d 	sth	r2,-4(fp)
	DS1307_SetRegByte(DS1307_REG_CENT, year / 100);
   207e0:	e0bfff0b 	ldhu	r2,-4(fp)
   207e4:	01401904 	movi	r5,100
   207e8:	1009883a 	mov	r4,r2
   207ec:	0022b740 	call	22b74 <__udivsi3>
   207f0:	10803fcc 	andi	r2,r2,255
   207f4:	100b883a 	mov	r5,r2
   207f8:	01000404 	movi	r4,16
   207fc:	00203200 	call	20320 <DS1307_SetRegByte>
	DS1307_SetRegByte(DS1307_REG_YEAR, DS1307_EncodeBCD(year % 100));
   20800:	e0bfff0b 	ldhu	r2,-4(fp)
   20804:	01401904 	movi	r5,100
   20808:	1009883a 	mov	r4,r2
   2080c:	0022bd80 	call	22bd8 <__umodsi3>
   20810:	10803fcc 	andi	r2,r2,255
   20814:	1009883a 	mov	r4,r2
   20818:	00209ec0 	call	209ec <DS1307_EncodeBCD>
   2081c:	10803fcc 	andi	r2,r2,255
   20820:	100b883a 	mov	r5,r2
   20824:	01000184 	movi	r4,6
   20828:	00203200 	call	20320 <DS1307_SetRegByte>
}
   2082c:	0001883a 	nop
   20830:	e037883a 	mov	sp,fp
   20834:	dfc00117 	ldw	ra,4(sp)
   20838:	df000017 	ldw	fp,0(sp)
   2083c:	dec00204 	addi	sp,sp,8
   20840:	f800283a 	ret

00020844 <DS1307_SetHour>:

/**
 * @brief Sets the current hour, in 24h format.
 * @param hour_24mode Hour in 24h format, 0 to 23.
 */
void DS1307_SetHour(uint8_t hour_24mode) {
   20844:	defffd04 	addi	sp,sp,-12
   20848:	dfc00215 	stw	ra,8(sp)
   2084c:	df000115 	stw	fp,4(sp)
   20850:	df000104 	addi	fp,sp,4
   20854:	2005883a 	mov	r2,r4
   20858:	e0bfff05 	stb	r2,-4(fp)
	DS1307_SetRegByte(DS1307_REG_HOUR, DS1307_EncodeBCD(hour_24mode & 0x3f));
   2085c:	e0bfff03 	ldbu	r2,-4(fp)
   20860:	10800fcc 	andi	r2,r2,63
   20864:	1009883a 	mov	r4,r2
   20868:	00209ec0 	call	209ec <DS1307_EncodeBCD>
   2086c:	10803fcc 	andi	r2,r2,255
   20870:	100b883a 	mov	r5,r2
   20874:	01000084 	movi	r4,2
   20878:	00203200 	call	20320 <DS1307_SetRegByte>
}
   2087c:	0001883a 	nop
   20880:	e037883a 	mov	sp,fp
   20884:	dfc00117 	ldw	ra,4(sp)
   20888:	df000017 	ldw	fp,0(sp)
   2088c:	dec00204 	addi	sp,sp,8
   20890:	f800283a 	ret

00020894 <DS1307_SetMinute>:

/**
 * @brief Sets the current minute.
 * @param minute Minute, 0 to 59.
 */
void DS1307_SetMinute(uint8_t minute) {
   20894:	defffd04 	addi	sp,sp,-12
   20898:	dfc00215 	stw	ra,8(sp)
   2089c:	df000115 	stw	fp,4(sp)
   208a0:	df000104 	addi	fp,sp,4
   208a4:	2005883a 	mov	r2,r4
   208a8:	e0bfff05 	stb	r2,-4(fp)
	DS1307_SetRegByte(DS1307_REG_MINUTE, DS1307_EncodeBCD(minute));
   208ac:	e0bfff03 	ldbu	r2,-4(fp)
   208b0:	1009883a 	mov	r4,r2
   208b4:	00209ec0 	call	209ec <DS1307_EncodeBCD>
   208b8:	10803fcc 	andi	r2,r2,255
   208bc:	100b883a 	mov	r5,r2
   208c0:	01000044 	movi	r4,1
   208c4:	00203200 	call	20320 <DS1307_SetRegByte>
}
   208c8:	0001883a 	nop
   208cc:	e037883a 	mov	sp,fp
   208d0:	dfc00117 	ldw	ra,4(sp)
   208d4:	df000017 	ldw	fp,0(sp)
   208d8:	dec00204 	addi	sp,sp,8
   208dc:	f800283a 	ret

000208e0 <DS1307_SetSecond>:

/**
 * @brief Sets the current second.
 * @param second Second, 0 to 59.
 */
void DS1307_SetSecond(uint8_t second) {
   208e0:	defffc04 	addi	sp,sp,-16
   208e4:	dfc00315 	stw	ra,12(sp)
   208e8:	df000215 	stw	fp,8(sp)
   208ec:	df000204 	addi	fp,sp,8
   208f0:	2005883a 	mov	r2,r4
   208f4:	e0bfff05 	stb	r2,-4(fp)
	uint8_t ch = DS1307_GetClockHalt();
   208f8:	00202ec0 	call	202ec <DS1307_GetClockHalt>
   208fc:	e0bffe05 	stb	r2,-8(fp)
	DS1307_SetRegByte(DS1307_REG_SECOND, DS1307_EncodeBCD(second | ch));
   20900:	e0ffff03 	ldbu	r3,-4(fp)
   20904:	e0bffe03 	ldbu	r2,-8(fp)
   20908:	1884b03a 	or	r2,r3,r2
   2090c:	10803fcc 	andi	r2,r2,255
   20910:	1009883a 	mov	r4,r2
   20914:	00209ec0 	call	209ec <DS1307_EncodeBCD>
   20918:	10803fcc 	andi	r2,r2,255
   2091c:	100b883a 	mov	r5,r2
   20920:	0009883a 	mov	r4,zero
   20924:	00203200 	call	20320 <DS1307_SetRegByte>
}
   20928:	0001883a 	nop
   2092c:	e037883a 	mov	sp,fp
   20930:	dfc00117 	ldw	ra,4(sp)
   20934:	df000017 	ldw	fp,0(sp)
   20938:	dec00204 	addi	sp,sp,8
   2093c:	f800283a 	ret

00020940 <DS1307_SetTimeZone>:
 * @brief Sets UTC offset.
 * @note  UTC offset is not updated automatically.
 * @param hr UTC hour offset, -12 to 12.
 * @param min UTC minute offset, 0 to 59.
 */
void DS1307_SetTimeZone(int8_t hr, uint8_t min) {
   20940:	defffc04 	addi	sp,sp,-16
   20944:	dfc00315 	stw	ra,12(sp)
   20948:	df000215 	stw	fp,8(sp)
   2094c:	df000204 	addi	fp,sp,8
   20950:	2007883a 	mov	r3,r4
   20954:	2805883a 	mov	r2,r5
   20958:	e0fffe05 	stb	r3,-8(fp)
   2095c:	e0bfff05 	stb	r2,-4(fp)
	DS1307_SetRegByte(DS1307_REG_UTC_HR, hr);
   20960:	e0bffe03 	ldbu	r2,-8(fp)
   20964:	10803fcc 	andi	r2,r2,255
   20968:	100b883a 	mov	r5,r2
   2096c:	01000204 	movi	r4,8
   20970:	00203200 	call	20320 <DS1307_SetRegByte>
	DS1307_SetRegByte(DS1307_REG_UTC_MIN, min);
   20974:	e0bfff03 	ldbu	r2,-4(fp)
   20978:	100b883a 	mov	r5,r2
   2097c:	01000244 	movi	r4,9
   20980:	00203200 	call	20320 <DS1307_SetRegByte>
}
   20984:	0001883a 	nop
   20988:	e037883a 	mov	sp,fp
   2098c:	dfc00117 	ldw	ra,4(sp)
   20990:	df000017 	ldw	fp,0(sp)
   20994:	dec00204 	addi	sp,sp,8
   20998:	f800283a 	ret

0002099c <DS1307_DecodeBCD>:
/**
 * @brief Decodes the raw binary value stored in registers to decimal format.
 * @param bin Binary-coded decimal value retrieved from register, 0 to 255.
 * @return Decoded decimal value.
 */
uint8_t DS1307_DecodeBCD(uint8_t bin) {
   2099c:	defffd04 	addi	sp,sp,-12
   209a0:	dfc00215 	stw	ra,8(sp)
   209a4:	df000115 	stw	fp,4(sp)
   209a8:	df000104 	addi	fp,sp,4
   209ac:	2005883a 	mov	r2,r4
   209b0:	e0bfff05 	stb	r2,-4(fp)
	return (((bin & 0xf0) >> 4) * 10) + (bin & 0x0f);
   209b4:	e0bfff03 	ldbu	r2,-4(fp)
   209b8:	1004d13a 	srli	r2,r2,4
   209bc:	01400284 	movi	r5,10
   209c0:	1009883a 	mov	r4,r2
   209c4:	0022c300 	call	22c30 <__mulsi3>
   209c8:	1007883a 	mov	r3,r2
   209cc:	e0bfff03 	ldbu	r2,-4(fp)
   209d0:	108003cc 	andi	r2,r2,15
   209d4:	1885883a 	add	r2,r3,r2
}
   209d8:	e037883a 	mov	sp,fp
   209dc:	dfc00117 	ldw	ra,4(sp)
   209e0:	df000017 	ldw	fp,0(sp)
   209e4:	dec00204 	addi	sp,sp,8
   209e8:	f800283a 	ret

000209ec <DS1307_EncodeBCD>:
/**
 * @brief Encodes a decimal number to binaty-coded decimal for storage in registers.
 * @param dec Decimal number to encode.
 * @return Encoded binary-coded decimal value.
 */
uint8_t DS1307_EncodeBCD(uint8_t dec) {
   209ec:	defffc04 	addi	sp,sp,-16
   209f0:	dfc00315 	stw	ra,12(sp)
   209f4:	df000215 	stw	fp,8(sp)
   209f8:	dc000115 	stw	r16,4(sp)
   209fc:	df000204 	addi	fp,sp,8
   20a00:	2005883a 	mov	r2,r4
   20a04:	e0bffe05 	stb	r2,-8(fp)
	return (dec % 10 + ((dec / 10) << 4));
   20a08:	e0bffe03 	ldbu	r2,-8(fp)
   20a0c:	01400284 	movi	r5,10
   20a10:	1009883a 	mov	r4,r2
   20a14:	0022bd80 	call	22bd8 <__umodsi3>
   20a18:	1021883a 	mov	r16,r2
   20a1c:	e0bffe03 	ldbu	r2,-8(fp)
   20a20:	01400284 	movi	r5,10
   20a24:	1009883a 	mov	r4,r2
   20a28:	0022b740 	call	22b74 <__udivsi3>
   20a2c:	1004913a 	slli	r2,r2,4
   20a30:	8085883a 	add	r2,r16,r2
}
   20a34:	e6ffff04 	addi	sp,fp,-4
   20a38:	dfc00217 	ldw	ra,8(sp)
   20a3c:	df000117 	ldw	fp,4(sp)
   20a40:	dc000017 	ldw	r16,0(sp)
   20a44:	dec00304 	addi	sp,sp,12
   20a48:	f800283a 	ret

00020a4c <SH1106_Init>:
static SH1106_t SH1106;

#define SH1106_NORMALDISPLAY       0xA6
#define SH1106_INVERTDISPLAY       0xA7

uint8_t  SH1106_Init(void) {
   20a4c:	defffe04 	addi	sp,sp,-8
   20a50:	dfc00115 	stw	ra,4(sp)
   20a54:	df000015 	stw	fp,0(sp)
   20a58:	d839883a 	mov	fp,sp
//		if (NULL==SH1106_I2C)  {
//			printf("Error: Cannot find /dev/i2c_0\n");
//			return;
//		}
//		printf("Successfully open I2C");
	alt_avalon_i2c_master_target_set(SH1106_I2C,SH1106_I2C_ADDR);
   20a5c:	d0a0e117 	ldw	r2,-31868(gp)
   20a60:	01400f04 	movi	r5,60
   20a64:	1009883a 	mov	r4,r2
   20a68:	00278900 	call	27890 <alt_avalon_i2c_master_target_set>
//	uint32_t p = 2500;
//	while(p>0)
//		p--;

	  // Initialize the display
	SH1106_WRITECOMMAND(0xAE); //display off
   20a6c:	01802b84 	movi	r6,174
   20a70:	000b883a 	mov	r5,zero
   20a74:	01000f04 	movi	r4,60
   20a78:	002221c0 	call	2221c <SH1106_I2C_Write>
	SH1106_WRITECOMMAND(0xB0|0x00); //Set Page Start Address for Page Addressing Mode,0-7
   20a7c:	01802c04 	movi	r6,176
   20a80:	000b883a 	mov	r5,zero
   20a84:	01000f04 	movi	r4,60
   20a88:	002221c0 	call	2221c <SH1106_I2C_Write>
	SH1106_WRITECOMMAND(0x81); //--set contrast control register
   20a8c:	01802044 	movi	r6,129
   20a90:	000b883a 	mov	r5,zero
   20a94:	01000f04 	movi	r4,60
   20a98:	002221c0 	call	2221c <SH1106_I2C_Write>
	SH1106_WRITECOMMAND(0xFF); // contrast value
   20a9c:	01803fc4 	movi	r6,255
   20aa0:	000b883a 	mov	r5,zero
   20aa4:	01000f04 	movi	r4,60
   20aa8:	002221c0 	call	2221c <SH1106_I2C_Write>
	SH1106_WRITECOMMAND(0xA1); //--set segment re-map 0 to 127
   20aac:	01802844 	movi	r6,161
   20ab0:	000b883a 	mov	r5,zero
   20ab4:	01000f04 	movi	r4,60
   20ab8:	002221c0 	call	2221c <SH1106_I2C_Write>
	SH1106_WRITECOMMAND(0xA6); //--set normal display
   20abc:	01802984 	movi	r6,166
   20ac0:	000b883a 	mov	r5,zero
   20ac4:	01000f04 	movi	r4,60
   20ac8:	002221c0 	call	2221c <SH1106_I2C_Write>
	SH1106_WRITECOMMAND(0xA8); //--set multiplex ratio(1 to 64)
   20acc:	01802a04 	movi	r6,168
   20ad0:	000b883a 	mov	r5,zero
   20ad4:	01000f04 	movi	r4,60
   20ad8:	002221c0 	call	2221c <SH1106_I2C_Write>
	SH1106_WRITECOMMAND(0x3F); // multiplex value
   20adc:	01800fc4 	movi	r6,63
   20ae0:	000b883a 	mov	r5,zero
   20ae4:	01000f04 	movi	r4,60
   20ae8:	002221c0 	call	2221c <SH1106_I2C_Write>
	SH1106_WRITECOMMAND(0xAD); // Set Pump Mode
   20aec:	01802b44 	movi	r6,173
   20af0:	000b883a 	mov	r5,zero
   20af4:	01000f04 	movi	r4,60
   20af8:	002221c0 	call	2221c <SH1106_I2C_Write>
	SH1106_WRITECOMMAND(0x8B); // Pump ON
   20afc:	018022c4 	movi	r6,139
   20b00:	000b883a 	mov	r5,zero
   20b04:	01000f04 	movi	r4,60
   20b08:	002221c0 	call	2221c <SH1106_I2C_Write>
	SH1106_WRITECOMMAND(0x30|0x02); // Set Pump Voltage 8.0
   20b0c:	01800c84 	movi	r6,50
   20b10:	000b883a 	mov	r5,zero
   20b14:	01000f04 	movi	r4,60
   20b18:	002221c0 	call	2221c <SH1106_I2C_Write>
	SH1106_WRITECOMMAND(0xC8); //Set COM Output Scan Direction
   20b1c:	01803204 	movi	r6,200
   20b20:	000b883a 	mov	r5,zero
   20b24:	01000f04 	movi	r4,60
   20b28:	002221c0 	call	2221c <SH1106_I2C_Write>
	SH1106_WRITECOMMAND(0xD3); //-set display offset
   20b2c:	018034c4 	movi	r6,211
   20b30:	000b883a 	mov	r5,zero
   20b34:	01000f04 	movi	r4,60
   20b38:	002221c0 	call	2221c <SH1106_I2C_Write>
	SH1106_WRITECOMMAND(0x00); //-not offset
   20b3c:	000d883a 	mov	r6,zero
   20b40:	000b883a 	mov	r5,zero
   20b44:	01000f04 	movi	r4,60
   20b48:	002221c0 	call	2221c <SH1106_I2C_Write>
	SH1106_WRITECOMMAND(0xD5); //--set display clock divide ratio/oscillator frequency
   20b4c:	01803544 	movi	r6,213
   20b50:	000b883a 	mov	r5,zero
   20b54:	01000f04 	movi	r4,60
   20b58:	002221c0 	call	2221c <SH1106_I2C_Write>
	SH1106_WRITECOMMAND(0x80); //--set divide ratio
   20b5c:	01802004 	movi	r6,128
   20b60:	000b883a 	mov	r5,zero
   20b64:	01000f04 	movi	r4,60
   20b68:	002221c0 	call	2221c <SH1106_I2C_Write>
	SH1106_WRITECOMMAND(0xD9); //--set pre-charge period
   20b6c:	01803644 	movi	r6,217
   20b70:	000b883a 	mov	r5,zero
   20b74:	01000f04 	movi	r4,60
   20b78:	002221c0 	call	2221c <SH1106_I2C_Write>
	SH1106_WRITECOMMAND(0x1F); //
   20b7c:	018007c4 	movi	r6,31
   20b80:	000b883a 	mov	r5,zero
   20b84:	01000f04 	movi	r4,60
   20b88:	002221c0 	call	2221c <SH1106_I2C_Write>
	SH1106_WRITECOMMAND(0xDA); //--set com pins hardware configuration
   20b8c:	01803684 	movi	r6,218
   20b90:	000b883a 	mov	r5,zero
   20b94:	01000f04 	movi	r4,60
   20b98:	002221c0 	call	2221c <SH1106_I2C_Write>
	SH1106_WRITECOMMAND(0x12);
   20b9c:	01800484 	movi	r6,18
   20ba0:	000b883a 	mov	r5,zero
   20ba4:	01000f04 	movi	r4,60
   20ba8:	002221c0 	call	2221c <SH1106_I2C_Write>
	SH1106_WRITECOMMAND(0xDB); //--set vcomh
   20bac:	018036c4 	movi	r6,219
   20bb0:	000b883a 	mov	r5,zero
   20bb4:	01000f04 	movi	r4,60
   20bb8:	002221c0 	call	2221c <SH1106_I2C_Write>
	SH1106_WRITECOMMAND(0x40); //
   20bbc:	01801004 	movi	r6,64
   20bc0:	000b883a 	mov	r5,zero
   20bc4:	01000f04 	movi	r4,60
   20bc8:	002221c0 	call	2221c <SH1106_I2C_Write>
	SH1106_WRITECOMMAND(0xAF); //--turn on SH1106 panel
   20bcc:	01802bc4 	movi	r6,175
   20bd0:	000b883a 	mov	r5,zero
   20bd4:	01000f04 	movi	r4,60
   20bd8:	002221c0 	call	2221c <SH1106_I2C_Write>


	/* Clear screen */
	SH1106_Fill(SH1106_COLOR_BLACK);
   20bdc:	0009883a 	mov	r4,zero
   20be0:	0020d3c0 	call	20d3c <SH1106_Fill>

	/* Update screen */
	SH1106_UpdateScreen();
   20be4:	0020c100 	call	20c10 <SH1106_UpdateScreen>

	/* Set default values */
	SH1106.CurrentX = 0;
   20be8:	d020dd0d 	sth	zero,-31884(gp)
	SH1106.CurrentY = 0;
   20bec:	d020dd8d 	sth	zero,-31882(gp)

	/* Initialized OK */
	SH1106.Initialized = 1;
   20bf0:	00800044 	movi	r2,1
   20bf4:	d0a0de45 	stb	r2,-31879(gp)

	/* Return OK */
	return 1;
   20bf8:	00800044 	movi	r2,1
}
   20bfc:	e037883a 	mov	sp,fp
   20c00:	dfc00117 	ldw	ra,4(sp)
   20c04:	df000017 	ldw	fp,0(sp)
   20c08:	dec00204 	addi	sp,sp,8
   20c0c:	f800283a 	ret

00020c10 <SH1106_UpdateScreen>:

void SH1106_UpdateScreen(void) {
   20c10:	defffd04 	addi	sp,sp,-12
   20c14:	dfc00215 	stw	ra,8(sp)
   20c18:	df000115 	stw	fp,4(sp)
   20c1c:	df000104 	addi	fp,sp,4
	uint8_t m;

	for (m = 0; m < 8; m++) {
   20c20:	e03fff05 	stb	zero,-4(fp)
   20c24:	00001c06 	br	20c98 <SH1106_UpdateScreen+0x88>
		SH1106_WRITECOMMAND(0xB0 + m);
   20c28:	e0bfff03 	ldbu	r2,-4(fp)
   20c2c:	10bfec04 	addi	r2,r2,-80
   20c30:	10803fcc 	andi	r2,r2,255
   20c34:	100d883a 	mov	r6,r2
   20c38:	000b883a 	mov	r5,zero
   20c3c:	01000f04 	movi	r4,60
   20c40:	002221c0 	call	2221c <SH1106_I2C_Write>
		SH1106_WRITECOMMAND(0x00);
   20c44:	000d883a 	mov	r6,zero
   20c48:	000b883a 	mov	r5,zero
   20c4c:	01000f04 	movi	r4,60
   20c50:	002221c0 	call	2221c <SH1106_I2C_Write>
		SH1106_WRITECOMMAND(0x10);
   20c54:	01800404 	movi	r6,16
   20c58:	000b883a 	mov	r5,zero
   20c5c:	01000f04 	movi	r4,60
   20c60:	002221c0 	call	2221c <SH1106_I2C_Write>

		/* Write multi data */
		SH1106_I2C_WriteMulti(SH1106_I2C_ADDR, 0x40, &SH1106_Buffer[SH1106_WIDTH * m], SH1106_WIDTH);
   20c64:	e0bfff03 	ldbu	r2,-4(fp)
   20c68:	100691fa 	slli	r3,r2,7
   20c6c:	008000f4 	movhi	r2,3
   20c70:	10802804 	addi	r2,r2,160
   20c74:	1885883a 	add	r2,r3,r2
   20c78:	01c02004 	movi	r7,128
   20c7c:	100d883a 	mov	r6,r2
   20c80:	01401004 	movi	r5,64
   20c84:	01000f04 	movi	r4,60
   20c88:	00221500 	call	22150 <SH1106_I2C_WriteMulti>
}

void SH1106_UpdateScreen(void) {
	uint8_t m;

	for (m = 0; m < 8; m++) {
   20c8c:	e0bfff03 	ldbu	r2,-4(fp)
   20c90:	10800044 	addi	r2,r2,1
   20c94:	e0bfff05 	stb	r2,-4(fp)
   20c98:	e0bfff03 	ldbu	r2,-4(fp)
   20c9c:	10800230 	cmpltui	r2,r2,8
   20ca0:	103fe11e 	bne	r2,zero,20c28 <__alt_data_end+0xfffe0c28>
		SH1106_WRITECOMMAND(0x10);

		/* Write multi data */
		SH1106_I2C_WriteMulti(SH1106_I2C_ADDR, 0x40, &SH1106_Buffer[SH1106_WIDTH * m], SH1106_WIDTH);
	}
}
   20ca4:	0001883a 	nop
   20ca8:	e037883a 	mov	sp,fp
   20cac:	dfc00117 	ldw	ra,4(sp)
   20cb0:	df000017 	ldw	fp,0(sp)
   20cb4:	dec00204 	addi	sp,sp,8
   20cb8:	f800283a 	ret

00020cbc <SH1106_ToggleInvert>:

void SH1106_ToggleInvert(void) {
   20cbc:	defffe04 	addi	sp,sp,-8
   20cc0:	df000115 	stw	fp,4(sp)
   20cc4:	df000104 	addi	fp,sp,4
	uint16_t i;

	/* Toggle invert */
	SH1106.Inverted = !SH1106.Inverted;
   20cc8:	d0a0de03 	ldbu	r2,-31880(gp)
   20ccc:	10803fcc 	andi	r2,r2,255
   20cd0:	1005003a 	cmpeq	r2,r2,zero
   20cd4:	d0a0de05 	stb	r2,-31880(gp)

	/* Do memory toggle */
	for (i = 0; i < sizeof(SH1106_Buffer); i++) {
   20cd8:	e03fff0d 	sth	zero,-4(fp)
   20cdc:	00000f06 	br	20d1c <SH1106_ToggleInvert+0x60>
		SH1106_Buffer[i] = ~SH1106_Buffer[i];
   20ce0:	e0ffff0b 	ldhu	r3,-4(fp)
   20ce4:	e13fff0b 	ldhu	r4,-4(fp)
   20ce8:	008000f4 	movhi	r2,3
   20cec:	10802804 	addi	r2,r2,160
   20cf0:	1105883a 	add	r2,r2,r4
   20cf4:	10800003 	ldbu	r2,0(r2)
   20cf8:	0084303a 	nor	r2,zero,r2
   20cfc:	1009883a 	mov	r4,r2
   20d00:	008000f4 	movhi	r2,3
   20d04:	10802804 	addi	r2,r2,160
   20d08:	10c5883a 	add	r2,r2,r3
   20d0c:	11000005 	stb	r4,0(r2)

	/* Toggle invert */
	SH1106.Inverted = !SH1106.Inverted;

	/* Do memory toggle */
	for (i = 0; i < sizeof(SH1106_Buffer); i++) {
   20d10:	e0bfff0b 	ldhu	r2,-4(fp)
   20d14:	10800044 	addi	r2,r2,1
   20d18:	e0bfff0d 	sth	r2,-4(fp)
   20d1c:	e0bfff0b 	ldhu	r2,-4(fp)
   20d20:	10810030 	cmpltui	r2,r2,1024
   20d24:	103fee1e 	bne	r2,zero,20ce0 <__alt_data_end+0xfffe0ce0>
		SH1106_Buffer[i] = ~SH1106_Buffer[i];
	}
}
   20d28:	0001883a 	nop
   20d2c:	e037883a 	mov	sp,fp
   20d30:	df000017 	ldw	fp,0(sp)
   20d34:	dec00104 	addi	sp,sp,4
   20d38:	f800283a 	ret

00020d3c <SH1106_Fill>:

void SH1106_Fill(SH1106_COLOR_t color) {
   20d3c:	defffd04 	addi	sp,sp,-12
   20d40:	dfc00215 	stw	ra,8(sp)
   20d44:	df000115 	stw	fp,4(sp)
   20d48:	df000104 	addi	fp,sp,4
   20d4c:	e13fff15 	stw	r4,-4(fp)
	/* Set memory */
	memset(SH1106_Buffer, (color == SH1106_COLOR_BLACK) ? 0x00 : 0xFF, sizeof(SH1106_Buffer));
   20d50:	e0bfff17 	ldw	r2,-4(fp)
   20d54:	1000021e 	bne	r2,zero,20d60 <SH1106_Fill+0x24>
   20d58:	0005883a 	mov	r2,zero
   20d5c:	00000106 	br	20d64 <SH1106_Fill+0x28>
   20d60:	00803fc4 	movi	r2,255
   20d64:	01810004 	movi	r6,1024
   20d68:	100b883a 	mov	r5,r2
   20d6c:	010000f4 	movhi	r4,3
   20d70:	21002804 	addi	r4,r4,160
   20d74:	0025a500 	call	25a50 <memset>
}
   20d78:	0001883a 	nop
   20d7c:	e037883a 	mov	sp,fp
   20d80:	dfc00117 	ldw	ra,4(sp)
   20d84:	df000017 	ldw	fp,0(sp)
   20d88:	dec00204 	addi	sp,sp,8
   20d8c:	f800283a 	ret

00020d90 <SH1106_DrawPixel>:

void SH1106_DrawPixel(uint16_t x, uint16_t y, SH1106_COLOR_t color) {
   20d90:	defffc04 	addi	sp,sp,-16
   20d94:	df000315 	stw	fp,12(sp)
   20d98:	df000304 	addi	fp,sp,12
   20d9c:	2007883a 	mov	r3,r4
   20da0:	2805883a 	mov	r2,r5
   20da4:	e1bfff15 	stw	r6,-4(fp)
   20da8:	e0fffd0d 	sth	r3,-12(fp)
   20dac:	e0bffe0d 	sth	r2,-8(fp)
	if (
   20db0:	e0bffd0b 	ldhu	r2,-12(fp)
   20db4:	10802028 	cmpgeui	r2,r2,128
   20db8:	1000441e 	bne	r2,zero,20ecc <SH1106_DrawPixel+0x13c>
		x >= SH1106_WIDTH ||
   20dbc:	e0bffe0b 	ldhu	r2,-8(fp)
   20dc0:	10801030 	cmpltui	r2,r2,64
   20dc4:	10004126 	beq	r2,zero,20ecc <SH1106_DrawPixel+0x13c>
		/* Error */
		return;
	}

	/* Check if pixels are inverted */
	if (SH1106.Inverted) {
   20dc8:	d0a0de03 	ldbu	r2,-31880(gp)
   20dcc:	10803fcc 	andi	r2,r2,255
   20dd0:	10000426 	beq	r2,zero,20de4 <SH1106_DrawPixel+0x54>
		color = (SH1106_COLOR_t)!color;
   20dd4:	e0bfff17 	ldw	r2,-4(fp)
   20dd8:	1005003a 	cmpeq	r2,r2,zero
   20ddc:	10803fcc 	andi	r2,r2,255
   20de0:	e0bfff15 	stw	r2,-4(fp)
	}

	/* Set color */
	if (color == SH1106_COLOR_WHITE) {
   20de4:	e0bfff17 	ldw	r2,-4(fp)
   20de8:	10800058 	cmpnei	r2,r2,1
   20dec:	10001b1e 	bne	r2,zero,20e5c <SH1106_DrawPixel+0xcc>
		SH1106_Buffer[x + (y / 8) * SH1106_WIDTH] |= 1 << (y % 8);
   20df0:	e0fffd0b 	ldhu	r3,-12(fp)
   20df4:	e0bffe0b 	ldhu	r2,-8(fp)
   20df8:	1004d0fa 	srli	r2,r2,3
   20dfc:	100b883a 	mov	r5,r2
   20e00:	28bfffcc 	andi	r2,r5,65535
   20e04:	100491fa 	slli	r2,r2,7
   20e08:	1887883a 	add	r3,r3,r2
   20e0c:	e13ffd0b 	ldhu	r4,-12(fp)
   20e10:	28bfffcc 	andi	r2,r5,65535
   20e14:	100491fa 	slli	r2,r2,7
   20e18:	2089883a 	add	r4,r4,r2
   20e1c:	008000f4 	movhi	r2,3
   20e20:	10802804 	addi	r2,r2,160
   20e24:	1105883a 	add	r2,r2,r4
   20e28:	10800003 	ldbu	r2,0(r2)
   20e2c:	100b883a 	mov	r5,r2
   20e30:	e0bffe0b 	ldhu	r2,-8(fp)
   20e34:	108001cc 	andi	r2,r2,7
   20e38:	01000044 	movi	r4,1
   20e3c:	2084983a 	sll	r2,r4,r2
   20e40:	2884b03a 	or	r2,r5,r2
   20e44:	1009883a 	mov	r4,r2
   20e48:	008000f4 	movhi	r2,3
   20e4c:	10802804 	addi	r2,r2,160
   20e50:	10c5883a 	add	r2,r2,r3
   20e54:	11000005 	stb	r4,0(r2)
   20e58:	00001d06 	br	20ed0 <SH1106_DrawPixel+0x140>
	} else {
		SH1106_Buffer[x + (y / 8) * SH1106_WIDTH] &= ~(1 << (y % 8));
   20e5c:	e0fffd0b 	ldhu	r3,-12(fp)
   20e60:	e0bffe0b 	ldhu	r2,-8(fp)
   20e64:	1004d0fa 	srli	r2,r2,3
   20e68:	100b883a 	mov	r5,r2
   20e6c:	28bfffcc 	andi	r2,r5,65535
   20e70:	100491fa 	slli	r2,r2,7
   20e74:	1887883a 	add	r3,r3,r2
   20e78:	e13ffd0b 	ldhu	r4,-12(fp)
   20e7c:	28bfffcc 	andi	r2,r5,65535
   20e80:	100491fa 	slli	r2,r2,7
   20e84:	2089883a 	add	r4,r4,r2
   20e88:	008000f4 	movhi	r2,3
   20e8c:	10802804 	addi	r2,r2,160
   20e90:	1105883a 	add	r2,r2,r4
   20e94:	10800003 	ldbu	r2,0(r2)
   20e98:	100b883a 	mov	r5,r2
   20e9c:	e0bffe0b 	ldhu	r2,-8(fp)
   20ea0:	108001cc 	andi	r2,r2,7
   20ea4:	01000044 	movi	r4,1
   20ea8:	2084983a 	sll	r2,r4,r2
   20eac:	0084303a 	nor	r2,zero,r2
   20eb0:	2884703a 	and	r2,r5,r2
   20eb4:	1009883a 	mov	r4,r2
   20eb8:	008000f4 	movhi	r2,3
   20ebc:	10802804 	addi	r2,r2,160
   20ec0:	10c5883a 	add	r2,r2,r3
   20ec4:	11000005 	stb	r4,0(r2)
   20ec8:	00000106 	br	20ed0 <SH1106_DrawPixel+0x140>
	if (
		x >= SH1106_WIDTH ||
		y >= SH1106_HEIGHT
	) {
		/* Error */
		return;
   20ecc:	0001883a 	nop
	if (color == SH1106_COLOR_WHITE) {
		SH1106_Buffer[x + (y / 8) * SH1106_WIDTH] |= 1 << (y % 8);
	} else {
		SH1106_Buffer[x + (y / 8) * SH1106_WIDTH] &= ~(1 << (y % 8));
	}
}
   20ed0:	e037883a 	mov	sp,fp
   20ed4:	df000017 	ldw	fp,0(sp)
   20ed8:	dec00104 	addi	sp,sp,4
   20edc:	f800283a 	ret

00020ee0 <SH1106_GotoXY>:

void SH1106_GotoXY(uint16_t x, uint16_t y) {
   20ee0:	defffd04 	addi	sp,sp,-12
   20ee4:	df000215 	stw	fp,8(sp)
   20ee8:	df000204 	addi	fp,sp,8
   20eec:	2007883a 	mov	r3,r4
   20ef0:	2805883a 	mov	r2,r5
   20ef4:	e0fffe0d 	sth	r3,-8(fp)
   20ef8:	e0bfff0d 	sth	r2,-4(fp)
	/* Set write pointers */
	SH1106.CurrentX = x;
   20efc:	e0bffe0b 	ldhu	r2,-8(fp)
   20f00:	d0a0dd0d 	sth	r2,-31884(gp)
	SH1106.CurrentY = y;
   20f04:	e0bfff0b 	ldhu	r2,-4(fp)
   20f08:	d0a0dd8d 	sth	r2,-31882(gp)
}
   20f0c:	0001883a 	nop
   20f10:	e037883a 	mov	sp,fp
   20f14:	df000017 	ldw	fp,0(sp)
   20f18:	dec00104 	addi	sp,sp,4
   20f1c:	f800283a 	ret

00020f20 <SH1106_Putc>:

char SH1106_Putc(char ch, FontDef_t* Font, SH1106_COLOR_t color) {
   20f20:	defff704 	addi	sp,sp,-36
   20f24:	dfc00815 	stw	ra,32(sp)
   20f28:	df000715 	stw	fp,28(sp)
   20f2c:	dc000615 	stw	r16,24(sp)
   20f30:	df000704 	addi	fp,sp,28
   20f34:	2005883a 	mov	r2,r4
   20f38:	e17ffd15 	stw	r5,-12(fp)
   20f3c:	e1bffe15 	stw	r6,-8(fp)
   20f40:	e0bffc05 	stb	r2,-16(fp)
	uint32_t i, b, j;

	/* Check available space in LCD */
	if (
		SH1106_WIDTH <= (SH1106.CurrentX + Font->FontWidth) ||
   20f44:	d0a0dd0b 	ldhu	r2,-31884(gp)
   20f48:	10ffffcc 	andi	r3,r2,65535
   20f4c:	e0bffd17 	ldw	r2,-12(fp)
   20f50:	10800003 	ldbu	r2,0(r2)
   20f54:	10803fcc 	andi	r2,r2,255
   20f58:	1885883a 	add	r2,r3,r2

char SH1106_Putc(char ch, FontDef_t* Font, SH1106_COLOR_t color) {
	uint32_t i, b, j;

	/* Check available space in LCD */
	if (
   20f5c:	10802008 	cmpgei	r2,r2,128
   20f60:	1000081e 	bne	r2,zero,20f84 <SH1106_Putc+0x64>
		SH1106_WIDTH <= (SH1106.CurrentX + Font->FontWidth) ||
		SH1106_HEIGHT <= (SH1106.CurrentY + Font->FontHeight)
   20f64:	d0a0dd8b 	ldhu	r2,-31882(gp)
   20f68:	10ffffcc 	andi	r3,r2,65535
   20f6c:	e0bffd17 	ldw	r2,-12(fp)
   20f70:	10800043 	ldbu	r2,1(r2)
   20f74:	10803fcc 	andi	r2,r2,255
   20f78:	1885883a 	add	r2,r3,r2
char SH1106_Putc(char ch, FontDef_t* Font, SH1106_COLOR_t color) {
	uint32_t i, b, j;

	/* Check available space in LCD */
	if (
		SH1106_WIDTH <= (SH1106.CurrentX + Font->FontWidth) ||
   20f7c:	10801010 	cmplti	r2,r2,64
   20f80:	1000021e 	bne	r2,zero,20f8c <SH1106_Putc+0x6c>
		SH1106_HEIGHT <= (SH1106.CurrentY + Font->FontHeight)
	) {
		/* Error */
		return 0;
   20f84:	0005883a 	mov	r2,zero
   20f88:	00004e06 	br	210c4 <SH1106_Putc+0x1a4>
	}

	/* Go through font */
	for (i = 0; i < Font->FontHeight; i++) {
   20f8c:	e03ff915 	stw	zero,-28(fp)
   20f90:	00004006 	br	21094 <SH1106_Putc+0x174>
		b = Font->data[(ch - 32) * Font->FontHeight + i];
   20f94:	e0bffd17 	ldw	r2,-12(fp)
   20f98:	14000117 	ldw	r16,4(r2)
   20f9c:	e0bffc07 	ldb	r2,-16(fp)
   20fa0:	10fff804 	addi	r3,r2,-32
   20fa4:	e0bffd17 	ldw	r2,-12(fp)
   20fa8:	10800043 	ldbu	r2,1(r2)
   20fac:	10803fcc 	andi	r2,r2,255
   20fb0:	100b883a 	mov	r5,r2
   20fb4:	1809883a 	mov	r4,r3
   20fb8:	0022c300 	call	22c30 <__mulsi3>
   20fbc:	1007883a 	mov	r3,r2
   20fc0:	e0bff917 	ldw	r2,-28(fp)
   20fc4:	1885883a 	add	r2,r3,r2
   20fc8:	1085883a 	add	r2,r2,r2
   20fcc:	8085883a 	add	r2,r16,r2
   20fd0:	1080000b 	ldhu	r2,0(r2)
   20fd4:	10bfffcc 	andi	r2,r2,65535
   20fd8:	e0bffb15 	stw	r2,-20(fp)
		for (j = 0; j < Font->FontWidth; j++) {
   20fdc:	e03ffa15 	stw	zero,-24(fp)
   20fe0:	00002406 	br	21074 <SH1106_Putc+0x154>
			if ((b << j) & 0x8000) {
   20fe4:	e0fffb17 	ldw	r3,-20(fp)
   20fe8:	e0bffa17 	ldw	r2,-24(fp)
   20fec:	1884983a 	sll	r2,r3,r2
   20ff0:	10a0000c 	andi	r2,r2,32768
   20ff4:	10000d26 	beq	r2,zero,2102c <SH1106_Putc+0x10c>
				SH1106_DrawPixel(SH1106.CurrentX + j, (SH1106.CurrentY + i), (SH1106_COLOR_t) color);
   20ff8:	d0a0dd0b 	ldhu	r2,-31884(gp)
   20ffc:	e0fffa17 	ldw	r3,-24(fp)
   21000:	10c5883a 	add	r2,r2,r3
   21004:	10ffffcc 	andi	r3,r2,65535
   21008:	d0a0dd8b 	ldhu	r2,-31882(gp)
   2100c:	e13ff917 	ldw	r4,-28(fp)
   21010:	1105883a 	add	r2,r2,r4
   21014:	10bfffcc 	andi	r2,r2,65535
   21018:	e1bffe17 	ldw	r6,-8(fp)
   2101c:	100b883a 	mov	r5,r2
   21020:	1809883a 	mov	r4,r3
   21024:	0020d900 	call	20d90 <SH1106_DrawPixel>
   21028:	00000f06 	br	21068 <SH1106_Putc+0x148>
			} else {
				SH1106_DrawPixel(SH1106.CurrentX + j, (SH1106.CurrentY + i), (SH1106_COLOR_t)!color);
   2102c:	d0a0dd0b 	ldhu	r2,-31884(gp)
   21030:	e0fffa17 	ldw	r3,-24(fp)
   21034:	10c5883a 	add	r2,r2,r3
   21038:	10ffffcc 	andi	r3,r2,65535
   2103c:	d0a0dd8b 	ldhu	r2,-31882(gp)
   21040:	e13ff917 	ldw	r4,-28(fp)
   21044:	1105883a 	add	r2,r2,r4
   21048:	113fffcc 	andi	r4,r2,65535
   2104c:	e0bffe17 	ldw	r2,-8(fp)
   21050:	1005003a 	cmpeq	r2,r2,zero
   21054:	10803fcc 	andi	r2,r2,255
   21058:	100d883a 	mov	r6,r2
   2105c:	200b883a 	mov	r5,r4
   21060:	1809883a 	mov	r4,r3
   21064:	0020d900 	call	20d90 <SH1106_DrawPixel>
	}

	/* Go through font */
	for (i = 0; i < Font->FontHeight; i++) {
		b = Font->data[(ch - 32) * Font->FontHeight + i];
		for (j = 0; j < Font->FontWidth; j++) {
   21068:	e0bffa17 	ldw	r2,-24(fp)
   2106c:	10800044 	addi	r2,r2,1
   21070:	e0bffa15 	stw	r2,-24(fp)
   21074:	e0bffd17 	ldw	r2,-12(fp)
   21078:	10800003 	ldbu	r2,0(r2)
   2107c:	10803fcc 	andi	r2,r2,255
   21080:	e0fffa17 	ldw	r3,-24(fp)
   21084:	18bfd736 	bltu	r3,r2,20fe4 <__alt_data_end+0xfffe0fe4>
		/* Error */
		return 0;
	}

	/* Go through font */
	for (i = 0; i < Font->FontHeight; i++) {
   21088:	e0bff917 	ldw	r2,-28(fp)
   2108c:	10800044 	addi	r2,r2,1
   21090:	e0bff915 	stw	r2,-28(fp)
   21094:	e0bffd17 	ldw	r2,-12(fp)
   21098:	10800043 	ldbu	r2,1(r2)
   2109c:	10803fcc 	andi	r2,r2,255
   210a0:	e0fff917 	ldw	r3,-28(fp)
   210a4:	18bfbb36 	bltu	r3,r2,20f94 <__alt_data_end+0xfffe0f94>
			}
		}
	}

	/* Increase pointer */
	SH1106.CurrentX += Font->FontWidth;
   210a8:	d0e0dd0b 	ldhu	r3,-31884(gp)
   210ac:	e0bffd17 	ldw	r2,-12(fp)
   210b0:	10800003 	ldbu	r2,0(r2)
   210b4:	10803fcc 	andi	r2,r2,255
   210b8:	1885883a 	add	r2,r3,r2
   210bc:	d0a0dd0d 	sth	r2,-31884(gp)

	/* Return character written */
	return ch;
   210c0:	e0bffc03 	ldbu	r2,-16(fp)
}
   210c4:	e6ffff04 	addi	sp,fp,-4
   210c8:	dfc00217 	ldw	ra,8(sp)
   210cc:	df000117 	ldw	fp,4(sp)
   210d0:	dc000017 	ldw	r16,0(sp)
   210d4:	dec00304 	addi	sp,sp,12
   210d8:	f800283a 	ret

000210dc <SH1106_Puts>:

char SH1106_Puts(char* str, FontDef_t* Font, SH1106_COLOR_t color) {
   210dc:	defffb04 	addi	sp,sp,-20
   210e0:	dfc00415 	stw	ra,16(sp)
   210e4:	df000315 	stw	fp,12(sp)
   210e8:	df000304 	addi	fp,sp,12
   210ec:	e13ffd15 	stw	r4,-12(fp)
   210f0:	e17ffe15 	stw	r5,-8(fp)
   210f4:	e1bfff15 	stw	r6,-4(fp)
	/* Write characters */
	while (*str) {
   210f8:	00001906 	br	21160 <SH1106_Puts+0x84>
		/* Write character by character */
		if (SH1106_Putc(*str, Font, color) != *str) {
   210fc:	e0bffd17 	ldw	r2,-12(fp)
   21100:	10800003 	ldbu	r2,0(r2)
   21104:	10803fcc 	andi	r2,r2,255
   21108:	1080201c 	xori	r2,r2,128
   2110c:	10bfe004 	addi	r2,r2,-128
   21110:	e1bfff17 	ldw	r6,-4(fp)
   21114:	e17ffe17 	ldw	r5,-8(fp)
   21118:	1009883a 	mov	r4,r2
   2111c:	0020f200 	call	20f20 <SH1106_Putc>
   21120:	1007883a 	mov	r3,r2
   21124:	e0bffd17 	ldw	r2,-12(fp)
   21128:	10800003 	ldbu	r2,0(r2)
   2112c:	18c03fcc 	andi	r3,r3,255
   21130:	18c0201c 	xori	r3,r3,128
   21134:	18ffe004 	addi	r3,r3,-128
   21138:	10803fcc 	andi	r2,r2,255
   2113c:	1080201c 	xori	r2,r2,128
   21140:	10bfe004 	addi	r2,r2,-128
   21144:	18800326 	beq	r3,r2,21154 <SH1106_Puts+0x78>
			/* Return error */
			return *str;
   21148:	e0bffd17 	ldw	r2,-12(fp)
   2114c:	10800003 	ldbu	r2,0(r2)
   21150:	00000b06 	br	21180 <SH1106_Puts+0xa4>
		}

		/* Increase string pointer */
		str++;
   21154:	e0bffd17 	ldw	r2,-12(fp)
   21158:	10800044 	addi	r2,r2,1
   2115c:	e0bffd15 	stw	r2,-12(fp)
	return ch;
}

char SH1106_Puts(char* str, FontDef_t* Font, SH1106_COLOR_t color) {
	/* Write characters */
	while (*str) {
   21160:	e0bffd17 	ldw	r2,-12(fp)
   21164:	10800003 	ldbu	r2,0(r2)
   21168:	10803fcc 	andi	r2,r2,255
   2116c:	1080201c 	xori	r2,r2,128
   21170:	10bfe004 	addi	r2,r2,-128
   21174:	103fe11e 	bne	r2,zero,210fc <__alt_data_end+0xfffe10fc>
		/* Increase string pointer */
		str++;
	}

	/* Everything OK, zero should be returned */
	return *str;
   21178:	e0bffd17 	ldw	r2,-12(fp)
   2117c:	10800003 	ldbu	r2,0(r2)
}
   21180:	e037883a 	mov	sp,fp
   21184:	dfc00117 	ldw	ra,4(sp)
   21188:	df000017 	ldw	fp,0(sp)
   2118c:	dec00204 	addi	sp,sp,8
   21190:	f800283a 	ret

00021194 <SH1106_DrawLine>:


void SH1106_DrawLine(uint16_t x0, uint16_t y0, uint16_t x1, uint16_t y1, SH1106_COLOR_t c) {
   21194:	defff604 	addi	sp,sp,-40
   21198:	dfc00915 	stw	ra,36(sp)
   2119c:	df000815 	stw	fp,32(sp)
   211a0:	df000804 	addi	fp,sp,32
   211a4:	2011883a 	mov	r8,r4
   211a8:	2809883a 	mov	r4,r5
   211ac:	3007883a 	mov	r3,r6
   211b0:	3805883a 	mov	r2,r7
   211b4:	e23ffc0d 	sth	r8,-16(fp)
   211b8:	e13ffd0d 	sth	r4,-12(fp)
   211bc:	e0fffe0d 	sth	r3,-8(fp)
   211c0:	e0bfff0d 	sth	r2,-4(fp)
	int16_t dx, dy, sx, sy, err, e2, i, tmp;

	/* Check for overflow */
	if (x0 >= SH1106_WIDTH) {
   211c4:	e0bffc0b 	ldhu	r2,-16(fp)
   211c8:	10802030 	cmpltui	r2,r2,128
   211cc:	1000021e 	bne	r2,zero,211d8 <SH1106_DrawLine+0x44>
		x0 = SH1106_WIDTH - 1;
   211d0:	00801fc4 	movi	r2,127
   211d4:	e0bffc0d 	sth	r2,-16(fp)
	}
	if (x1 >= SH1106_WIDTH) {
   211d8:	e0bffe0b 	ldhu	r2,-8(fp)
   211dc:	10802030 	cmpltui	r2,r2,128
   211e0:	1000021e 	bne	r2,zero,211ec <SH1106_DrawLine+0x58>
		x1 = SH1106_WIDTH - 1;
   211e4:	00801fc4 	movi	r2,127
   211e8:	e0bffe0d 	sth	r2,-8(fp)
	}
	if (y0 >= SH1106_HEIGHT) {
   211ec:	e0bffd0b 	ldhu	r2,-12(fp)
   211f0:	10801030 	cmpltui	r2,r2,64
   211f4:	1000021e 	bne	r2,zero,21200 <SH1106_DrawLine+0x6c>
		y0 = SH1106_HEIGHT - 1;
   211f8:	00800fc4 	movi	r2,63
   211fc:	e0bffd0d 	sth	r2,-12(fp)
	}
	if (y1 >= SH1106_HEIGHT) {
   21200:	e0bfff0b 	ldhu	r2,-4(fp)
   21204:	10801030 	cmpltui	r2,r2,64
   21208:	1000021e 	bne	r2,zero,21214 <SH1106_DrawLine+0x80>
		y1 = SH1106_HEIGHT - 1;
   2120c:	00800fc4 	movi	r2,63
   21210:	e0bfff0d 	sth	r2,-4(fp)
	}

	dx = (x0 < x1) ? (x1 - x0) : (x0 - x1);
   21214:	e0fffc0b 	ldhu	r3,-16(fp)
   21218:	e0bffe0b 	ldhu	r2,-8(fp)
   2121c:	1880042e 	bgeu	r3,r2,21230 <SH1106_DrawLine+0x9c>
   21220:	e0fffe0b 	ldhu	r3,-8(fp)
   21224:	e0bffc0b 	ldhu	r2,-16(fp)
   21228:	1885c83a 	sub	r2,r3,r2
   2122c:	00000306 	br	2123c <SH1106_DrawLine+0xa8>
   21230:	e0fffc0b 	ldhu	r3,-16(fp)
   21234:	e0bffe0b 	ldhu	r2,-8(fp)
   21238:	1885c83a 	sub	r2,r3,r2
   2123c:	e0bff90d 	sth	r2,-28(fp)
	dy = (y0 < y1) ? (y1 - y0) : (y0 - y1);
   21240:	e0fffd0b 	ldhu	r3,-12(fp)
   21244:	e0bfff0b 	ldhu	r2,-4(fp)
   21248:	1880042e 	bgeu	r3,r2,2125c <SH1106_DrawLine+0xc8>
   2124c:	e0ffff0b 	ldhu	r3,-4(fp)
   21250:	e0bffd0b 	ldhu	r2,-12(fp)
   21254:	1885c83a 	sub	r2,r3,r2
   21258:	00000306 	br	21268 <SH1106_DrawLine+0xd4>
   2125c:	e0fffd0b 	ldhu	r3,-12(fp)
   21260:	e0bfff0b 	ldhu	r2,-4(fp)
   21264:	1885c83a 	sub	r2,r3,r2
   21268:	e0bff98d 	sth	r2,-26(fp)
	sx = (x0 < x1) ? 1 : -1;
   2126c:	e0fffc0b 	ldhu	r3,-16(fp)
   21270:	e0bffe0b 	ldhu	r2,-8(fp)
   21274:	1880022e 	bgeu	r3,r2,21280 <SH1106_DrawLine+0xec>
   21278:	00800044 	movi	r2,1
   2127c:	00000106 	br	21284 <SH1106_DrawLine+0xf0>
   21280:	00bfffc4 	movi	r2,-1
   21284:	e0bffa0d 	sth	r2,-24(fp)
	sy = (y0 < y1) ? 1 : -1;
   21288:	e0fffd0b 	ldhu	r3,-12(fp)
   2128c:	e0bfff0b 	ldhu	r2,-4(fp)
   21290:	1880022e 	bgeu	r3,r2,2129c <SH1106_DrawLine+0x108>
   21294:	00800044 	movi	r2,1
   21298:	00000106 	br	212a0 <SH1106_DrawLine+0x10c>
   2129c:	00bfffc4 	movi	r2,-1
   212a0:	e0bffa8d 	sth	r2,-22(fp)
	err = ((dx > dy) ? dx : -dy) / 2;
   212a4:	e0bff90f 	ldh	r2,-28(fp)
   212a8:	e0fff98f 	ldh	r3,-26(fp)
   212ac:	1880050e 	bge	r3,r2,212c4 <SH1106_DrawLine+0x130>
   212b0:	e0bff90f 	ldh	r2,-28(fp)
   212b4:	1006d7fa 	srli	r3,r2,31
   212b8:	1885883a 	add	r2,r3,r2
   212bc:	1005d07a 	srai	r2,r2,1
   212c0:	00000506 	br	212d8 <SH1106_DrawLine+0x144>
   212c4:	e0bff98f 	ldh	r2,-26(fp)
   212c8:	0085c83a 	sub	r2,zero,r2
   212cc:	1006d7fa 	srli	r3,r2,31
   212d0:	1885883a 	add	r2,r3,r2
   212d4:	1005d07a 	srai	r2,r2,1
   212d8:	e0bff80d 	sth	r2,-32(fp)

	if (dx == 0) {
   212dc:	e0bff90f 	ldh	r2,-28(fp)
   212e0:	1000231e 	bne	r2,zero,21370 <SH1106_DrawLine+0x1dc>
		if (y1 < y0) {
   212e4:	e0ffff0b 	ldhu	r3,-4(fp)
   212e8:	e0bffd0b 	ldhu	r2,-12(fp)
   212ec:	1880062e 	bgeu	r3,r2,21308 <SH1106_DrawLine+0x174>
			tmp = y1;
   212f0:	e0bfff0b 	ldhu	r2,-4(fp)
   212f4:	e0bffb0d 	sth	r2,-20(fp)
			y1 = y0;
   212f8:	e0bffd0b 	ldhu	r2,-12(fp)
   212fc:	e0bfff0d 	sth	r2,-4(fp)
			y0 = tmp;
   21300:	e0bffb0b 	ldhu	r2,-20(fp)
   21304:	e0bffd0d 	sth	r2,-12(fp)
		}

		if (x1 < x0) {
   21308:	e0fffe0b 	ldhu	r3,-8(fp)
   2130c:	e0bffc0b 	ldhu	r2,-16(fp)
   21310:	1880062e 	bgeu	r3,r2,2132c <SH1106_DrawLine+0x198>
			tmp = x1;
   21314:	e0bffe0b 	ldhu	r2,-8(fp)
   21318:	e0bffb0d 	sth	r2,-20(fp)
			x1 = x0;
   2131c:	e0bffc0b 	ldhu	r2,-16(fp)
   21320:	e0bffe0d 	sth	r2,-8(fp)
			x0 = tmp;
   21324:	e0bffb0b 	ldhu	r2,-20(fp)
   21328:	e0bffc0d 	sth	r2,-16(fp)
		}

		/* Vertical line */
		for (i = y0; i <= y1; i++) {
   2132c:	e0bffd0b 	ldhu	r2,-12(fp)
   21330:	e0bff88d 	sth	r2,-30(fp)
   21334:	00000a06 	br	21360 <SH1106_DrawLine+0x1cc>
			SH1106_DrawPixel(x0, i, c);
   21338:	e0bffc0b 	ldhu	r2,-16(fp)
   2133c:	e0fff88b 	ldhu	r3,-30(fp)
   21340:	18ffffcc 	andi	r3,r3,65535
   21344:	e1800217 	ldw	r6,8(fp)
   21348:	180b883a 	mov	r5,r3
   2134c:	1009883a 	mov	r4,r2
   21350:	0020d900 	call	20d90 <SH1106_DrawPixel>
			x1 = x0;
			x0 = tmp;
		}

		/* Vertical line */
		for (i = y0; i <= y1; i++) {
   21354:	e0bff88b 	ldhu	r2,-30(fp)
   21358:	10800044 	addi	r2,r2,1
   2135c:	e0bff88d 	sth	r2,-30(fp)
   21360:	e0bff88f 	ldh	r2,-30(fp)
   21364:	e0ffff0b 	ldhu	r3,-4(fp)
   21368:	18bff30e 	bge	r3,r2,21338 <__alt_data_end+0xfffe1338>
			SH1106_DrawPixel(x0, i, c);
		}

		/* Return from function */
		return;
   2136c:	00004c06 	br	214a0 <SH1106_DrawLine+0x30c>
	}

	if (dy == 0) {
   21370:	e0bff98f 	ldh	r2,-26(fp)
   21374:	1000231e 	bne	r2,zero,21404 <SH1106_DrawLine+0x270>
		if (y1 < y0) {
   21378:	e0ffff0b 	ldhu	r3,-4(fp)
   2137c:	e0bffd0b 	ldhu	r2,-12(fp)
   21380:	1880062e 	bgeu	r3,r2,2139c <SH1106_DrawLine+0x208>
			tmp = y1;
   21384:	e0bfff0b 	ldhu	r2,-4(fp)
   21388:	e0bffb0d 	sth	r2,-20(fp)
			y1 = y0;
   2138c:	e0bffd0b 	ldhu	r2,-12(fp)
   21390:	e0bfff0d 	sth	r2,-4(fp)
			y0 = tmp;
   21394:	e0bffb0b 	ldhu	r2,-20(fp)
   21398:	e0bffd0d 	sth	r2,-12(fp)
		}

		if (x1 < x0) {
   2139c:	e0fffe0b 	ldhu	r3,-8(fp)
   213a0:	e0bffc0b 	ldhu	r2,-16(fp)
   213a4:	1880062e 	bgeu	r3,r2,213c0 <SH1106_DrawLine+0x22c>
			tmp = x1;
   213a8:	e0bffe0b 	ldhu	r2,-8(fp)
   213ac:	e0bffb0d 	sth	r2,-20(fp)
			x1 = x0;
   213b0:	e0bffc0b 	ldhu	r2,-16(fp)
   213b4:	e0bffe0d 	sth	r2,-8(fp)
			x0 = tmp;
   213b8:	e0bffb0b 	ldhu	r2,-20(fp)
   213bc:	e0bffc0d 	sth	r2,-16(fp)
		}

		/* Horizontal line */
		for (i = x0; i <= x1; i++) {
   213c0:	e0bffc0b 	ldhu	r2,-16(fp)
   213c4:	e0bff88d 	sth	r2,-30(fp)
   213c8:	00000a06 	br	213f4 <SH1106_DrawLine+0x260>
			SH1106_DrawPixel(i, y0, c);
   213cc:	e0bff88b 	ldhu	r2,-30(fp)
   213d0:	10bfffcc 	andi	r2,r2,65535
   213d4:	e0fffd0b 	ldhu	r3,-12(fp)
   213d8:	e1800217 	ldw	r6,8(fp)
   213dc:	180b883a 	mov	r5,r3
   213e0:	1009883a 	mov	r4,r2
   213e4:	0020d900 	call	20d90 <SH1106_DrawPixel>
			x1 = x0;
			x0 = tmp;
		}

		/* Horizontal line */
		for (i = x0; i <= x1; i++) {
   213e8:	e0bff88b 	ldhu	r2,-30(fp)
   213ec:	10800044 	addi	r2,r2,1
   213f0:	e0bff88d 	sth	r2,-30(fp)
   213f4:	e0bff88f 	ldh	r2,-30(fp)
   213f8:	e0fffe0b 	ldhu	r3,-8(fp)
   213fc:	18bff30e 	bge	r3,r2,213cc <__alt_data_end+0xfffe13cc>
			SH1106_DrawPixel(i, y0, c);
		}

		/* Return from function */
		return;
   21400:	00002706 	br	214a0 <SH1106_DrawLine+0x30c>
	}

	while (1) {
		SH1106_DrawPixel(x0, y0, c);
   21404:	e0bffc0b 	ldhu	r2,-16(fp)
   21408:	e0fffd0b 	ldhu	r3,-12(fp)
   2140c:	e1800217 	ldw	r6,8(fp)
   21410:	180b883a 	mov	r5,r3
   21414:	1009883a 	mov	r4,r2
   21418:	0020d900 	call	20d90 <SH1106_DrawPixel>
		if (x0 == x1 && y0 == y1) {
   2141c:	e0fffc0b 	ldhu	r3,-16(fp)
   21420:	e0bffe0b 	ldhu	r2,-8(fp)
   21424:	1880031e 	bne	r3,r2,21434 <SH1106_DrawLine+0x2a0>
   21428:	e0fffd0b 	ldhu	r3,-12(fp)
   2142c:	e0bfff0b 	ldhu	r2,-4(fp)
   21430:	18801a26 	beq	r3,r2,2149c <SH1106_DrawLine+0x308>
			break;
		}
		e2 = err;
   21434:	e0bff80b 	ldhu	r2,-32(fp)
   21438:	e0bffb8d 	sth	r2,-18(fp)
		if (e2 > -dx) {
   2143c:	e0bffb8f 	ldh	r2,-18(fp)
   21440:	e0fff90f 	ldh	r3,-28(fp)
   21444:	00c7c83a 	sub	r3,zero,r3
   21448:	1880080e 	bge	r3,r2,2146c <SH1106_DrawLine+0x2d8>
			err -= dy;
   2144c:	e0fff80b 	ldhu	r3,-32(fp)
   21450:	e0bff98b 	ldhu	r2,-26(fp)
   21454:	1885c83a 	sub	r2,r3,r2
   21458:	e0bff80d 	sth	r2,-32(fp)
			x0 += sx;
   2145c:	e0bffa0b 	ldhu	r2,-24(fp)
   21460:	e0fffc0b 	ldhu	r3,-16(fp)
   21464:	1885883a 	add	r2,r3,r2
   21468:	e0bffc0d 	sth	r2,-16(fp)
		}
		if (e2 < dy) {
   2146c:	e0fffb8f 	ldh	r3,-18(fp)
   21470:	e0bff98f 	ldh	r2,-26(fp)
   21474:	18bfe30e 	bge	r3,r2,21404 <__alt_data_end+0xfffe1404>
			err += dx;
   21478:	e0fff80b 	ldhu	r3,-32(fp)
   2147c:	e0bff90b 	ldhu	r2,-28(fp)
   21480:	1885883a 	add	r2,r3,r2
   21484:	e0bff80d 	sth	r2,-32(fp)
			y0 += sy;
   21488:	e0bffa8b 	ldhu	r2,-22(fp)
   2148c:	e0fffd0b 	ldhu	r3,-12(fp)
   21490:	1885883a 	add	r2,r3,r2
   21494:	e0bffd0d 	sth	r2,-12(fp)
		}
	}
   21498:	003fda06 	br	21404 <__alt_data_end+0xfffe1404>
	}

	while (1) {
		SH1106_DrawPixel(x0, y0, c);
		if (x0 == x1 && y0 == y1) {
			break;
   2149c:	0001883a 	nop
		if (e2 < dy) {
			err += dx;
			y0 += sy;
		}
	}
}
   214a0:	e037883a 	mov	sp,fp
   214a4:	dfc00117 	ldw	ra,4(sp)
   214a8:	df000017 	ldw	fp,0(sp)
   214ac:	dec00204 	addi	sp,sp,8
   214b0:	f800283a 	ret

000214b4 <SH1106_DrawRectangle>:

void SH1106_DrawRectangle(uint16_t x, uint16_t y, uint16_t w, uint16_t h, SH1106_COLOR_t c) {
   214b4:	defff904 	addi	sp,sp,-28
   214b8:	dfc00615 	stw	ra,24(sp)
   214bc:	df000515 	stw	fp,20(sp)
   214c0:	df000504 	addi	fp,sp,20
   214c4:	2011883a 	mov	r8,r4
   214c8:	2809883a 	mov	r4,r5
   214cc:	3007883a 	mov	r3,r6
   214d0:	3805883a 	mov	r2,r7
   214d4:	e23ffc0d 	sth	r8,-16(fp)
   214d8:	e13ffd0d 	sth	r4,-12(fp)
   214dc:	e0fffe0d 	sth	r3,-8(fp)
   214e0:	e0bfff0d 	sth	r2,-4(fp)
	/* Check input parameters */
	if (
   214e4:	e0bffc0b 	ldhu	r2,-16(fp)
   214e8:	10802028 	cmpgeui	r2,r2,128
   214ec:	10004f1e 	bne	r2,zero,2162c <SH1106_DrawRectangle+0x178>
		x >= SH1106_WIDTH ||
   214f0:	e0bffd0b 	ldhu	r2,-12(fp)
   214f4:	10801030 	cmpltui	r2,r2,64
   214f8:	10004c26 	beq	r2,zero,2162c <SH1106_DrawRectangle+0x178>
		/* Return error */
		return;
	}

	/* Check width and height */
	if ((x + w) >= SH1106_WIDTH) {
   214fc:	e0fffc0b 	ldhu	r3,-16(fp)
   21500:	e0bffe0b 	ldhu	r2,-8(fp)
   21504:	1885883a 	add	r2,r3,r2
   21508:	10802010 	cmplti	r2,r2,128
   2150c:	1000041e 	bne	r2,zero,21520 <SH1106_DrawRectangle+0x6c>
		w = SH1106_WIDTH - x;
   21510:	e0bffc0b 	ldhu	r2,-16(fp)
   21514:	00c02004 	movi	r3,128
   21518:	1885c83a 	sub	r2,r3,r2
   2151c:	e0bffe0d 	sth	r2,-8(fp)
	}
	if ((y + h) >= SH1106_HEIGHT) {
   21520:	e0fffd0b 	ldhu	r3,-12(fp)
   21524:	e0bfff0b 	ldhu	r2,-4(fp)
   21528:	1885883a 	add	r2,r3,r2
   2152c:	10801010 	cmplti	r2,r2,64
   21530:	1000041e 	bne	r2,zero,21544 <SH1106_DrawRectangle+0x90>
		h = SH1106_HEIGHT - y;
   21534:	e0bffd0b 	ldhu	r2,-12(fp)
   21538:	00c01004 	movi	r3,64
   2153c:	1885c83a 	sub	r2,r3,r2
   21540:	e0bfff0d 	sth	r2,-4(fp)
	}

	/* Draw 4 lines */
	SH1106_DrawLine(x, y, x + w, y, c);         /* Top line */
   21544:	e13ffc0b 	ldhu	r4,-16(fp)
   21548:	e17ffd0b 	ldhu	r5,-12(fp)
   2154c:	e0fffc0b 	ldhu	r3,-16(fp)
   21550:	e0bffe0b 	ldhu	r2,-8(fp)
   21554:	1885883a 	add	r2,r3,r2
   21558:	10ffffcc 	andi	r3,r2,65535
   2155c:	e1bffd0b 	ldhu	r6,-12(fp)
   21560:	e0800217 	ldw	r2,8(fp)
   21564:	d8800015 	stw	r2,0(sp)
   21568:	300f883a 	mov	r7,r6
   2156c:	180d883a 	mov	r6,r3
   21570:	00211940 	call	21194 <SH1106_DrawLine>
	SH1106_DrawLine(x, y + h, x + w, y + h, c); /* Bottom line */
   21574:	e13ffc0b 	ldhu	r4,-16(fp)
   21578:	e0fffd0b 	ldhu	r3,-12(fp)
   2157c:	e0bfff0b 	ldhu	r2,-4(fp)
   21580:	1885883a 	add	r2,r3,r2
   21584:	117fffcc 	andi	r5,r2,65535
   21588:	e0fffc0b 	ldhu	r3,-16(fp)
   2158c:	e0bffe0b 	ldhu	r2,-8(fp)
   21590:	1885883a 	add	r2,r3,r2
   21594:	11bfffcc 	andi	r6,r2,65535
   21598:	e0fffd0b 	ldhu	r3,-12(fp)
   2159c:	e0bfff0b 	ldhu	r2,-4(fp)
   215a0:	1885883a 	add	r2,r3,r2
   215a4:	10ffffcc 	andi	r3,r2,65535
   215a8:	e0800217 	ldw	r2,8(fp)
   215ac:	d8800015 	stw	r2,0(sp)
   215b0:	180f883a 	mov	r7,r3
   215b4:	00211940 	call	21194 <SH1106_DrawLine>
	SH1106_DrawLine(x, y, x, y + h, c);         /* Left line */
   215b8:	e13ffc0b 	ldhu	r4,-16(fp)
   215bc:	e17ffd0b 	ldhu	r5,-12(fp)
   215c0:	e1bffc0b 	ldhu	r6,-16(fp)
   215c4:	e0fffd0b 	ldhu	r3,-12(fp)
   215c8:	e0bfff0b 	ldhu	r2,-4(fp)
   215cc:	1885883a 	add	r2,r3,r2
   215d0:	10ffffcc 	andi	r3,r2,65535
   215d4:	e0800217 	ldw	r2,8(fp)
   215d8:	d8800015 	stw	r2,0(sp)
   215dc:	180f883a 	mov	r7,r3
   215e0:	00211940 	call	21194 <SH1106_DrawLine>
	SH1106_DrawLine(x + w, y, x + w, y + h, c); /* Right line */
   215e4:	e0fffc0b 	ldhu	r3,-16(fp)
   215e8:	e0bffe0b 	ldhu	r2,-8(fp)
   215ec:	1885883a 	add	r2,r3,r2
   215f0:	113fffcc 	andi	r4,r2,65535
   215f4:	e17ffd0b 	ldhu	r5,-12(fp)
   215f8:	e0fffc0b 	ldhu	r3,-16(fp)
   215fc:	e0bffe0b 	ldhu	r2,-8(fp)
   21600:	1885883a 	add	r2,r3,r2
   21604:	11bfffcc 	andi	r6,r2,65535
   21608:	e0fffd0b 	ldhu	r3,-12(fp)
   2160c:	e0bfff0b 	ldhu	r2,-4(fp)
   21610:	1885883a 	add	r2,r3,r2
   21614:	10ffffcc 	andi	r3,r2,65535
   21618:	e0800217 	ldw	r2,8(fp)
   2161c:	d8800015 	stw	r2,0(sp)
   21620:	180f883a 	mov	r7,r3
   21624:	00211940 	call	21194 <SH1106_DrawLine>
   21628:	00000106 	br	21630 <SH1106_DrawRectangle+0x17c>
	if (
		x >= SH1106_WIDTH ||
		y >= SH1106_HEIGHT
	) {
		/* Return error */
		return;
   2162c:	0001883a 	nop
	/* Draw 4 lines */
	SH1106_DrawLine(x, y, x + w, y, c);         /* Top line */
	SH1106_DrawLine(x, y + h, x + w, y + h, c); /* Bottom line */
	SH1106_DrawLine(x, y, x, y + h, c);         /* Left line */
	SH1106_DrawLine(x + w, y, x + w, y + h, c); /* Right line */
}
   21630:	e037883a 	mov	sp,fp
   21634:	dfc00117 	ldw	ra,4(sp)
   21638:	df000017 	ldw	fp,0(sp)
   2163c:	dec00204 	addi	sp,sp,8
   21640:	f800283a 	ret

00021644 <SH1106_DrawFilledRectangle>:

void SH1106_DrawFilledRectangle(uint16_t x, uint16_t y, uint16_t w, uint16_t h, SH1106_COLOR_t c) {
   21644:	defff804 	addi	sp,sp,-32
   21648:	dfc00715 	stw	ra,28(sp)
   2164c:	df000615 	stw	fp,24(sp)
   21650:	df000604 	addi	fp,sp,24
   21654:	2011883a 	mov	r8,r4
   21658:	2809883a 	mov	r4,r5
   2165c:	3007883a 	mov	r3,r6
   21660:	3805883a 	mov	r2,r7
   21664:	e23ffc0d 	sth	r8,-16(fp)
   21668:	e13ffd0d 	sth	r4,-12(fp)
   2166c:	e0fffe0d 	sth	r3,-8(fp)
   21670:	e0bfff0d 	sth	r2,-4(fp)
	uint8_t i;

	/* Check input parameters */
	if (
   21674:	e0bffc0b 	ldhu	r2,-16(fp)
   21678:	10802028 	cmpgeui	r2,r2,128
   2167c:	1000301e 	bne	r2,zero,21740 <SH1106_DrawFilledRectangle+0xfc>
		x >= SH1106_WIDTH ||
   21680:	e0bffd0b 	ldhu	r2,-12(fp)
   21684:	10801030 	cmpltui	r2,r2,64
   21688:	10002d26 	beq	r2,zero,21740 <SH1106_DrawFilledRectangle+0xfc>
		/* Return error */
		return;
	}

	/* Check width and height */
	if ((x + w) >= SH1106_WIDTH) {
   2168c:	e0fffc0b 	ldhu	r3,-16(fp)
   21690:	e0bffe0b 	ldhu	r2,-8(fp)
   21694:	1885883a 	add	r2,r3,r2
   21698:	10802010 	cmplti	r2,r2,128
   2169c:	1000041e 	bne	r2,zero,216b0 <SH1106_DrawFilledRectangle+0x6c>
		w = SH1106_WIDTH - x;
   216a0:	e0bffc0b 	ldhu	r2,-16(fp)
   216a4:	00c02004 	movi	r3,128
   216a8:	1885c83a 	sub	r2,r3,r2
   216ac:	e0bffe0d 	sth	r2,-8(fp)
	}
	if ((y + h) >= SH1106_HEIGHT) {
   216b0:	e0fffd0b 	ldhu	r3,-12(fp)
   216b4:	e0bfff0b 	ldhu	r2,-4(fp)
   216b8:	1885883a 	add	r2,r3,r2
   216bc:	10801010 	cmplti	r2,r2,64
   216c0:	1000041e 	bne	r2,zero,216d4 <SH1106_DrawFilledRectangle+0x90>
		h = SH1106_HEIGHT - y;
   216c4:	e0bffd0b 	ldhu	r2,-12(fp)
   216c8:	00c01004 	movi	r3,64
   216cc:	1885c83a 	sub	r2,r3,r2
   216d0:	e0bfff0d 	sth	r2,-4(fp)
	}

	/* Draw lines */
	for (i = 0; i <= h; i++) {
   216d4:	e03ffb05 	stb	zero,-20(fp)
   216d8:	00001406 	br	2172c <SH1106_DrawFilledRectangle+0xe8>
		/* Draw lines */
		SH1106_DrawLine(x, y + i, x + w, y + i, c);
   216dc:	e13ffc0b 	ldhu	r4,-16(fp)
   216e0:	e0fffb03 	ldbu	r3,-20(fp)
   216e4:	e0bffd0b 	ldhu	r2,-12(fp)
   216e8:	1885883a 	add	r2,r3,r2
   216ec:	117fffcc 	andi	r5,r2,65535
   216f0:	e0fffc0b 	ldhu	r3,-16(fp)
   216f4:	e0bffe0b 	ldhu	r2,-8(fp)
   216f8:	1885883a 	add	r2,r3,r2
   216fc:	11bfffcc 	andi	r6,r2,65535
   21700:	e0fffb03 	ldbu	r3,-20(fp)
   21704:	e0bffd0b 	ldhu	r2,-12(fp)
   21708:	1885883a 	add	r2,r3,r2
   2170c:	10ffffcc 	andi	r3,r2,65535
   21710:	e0800217 	ldw	r2,8(fp)
   21714:	d8800015 	stw	r2,0(sp)
   21718:	180f883a 	mov	r7,r3
   2171c:	00211940 	call	21194 <SH1106_DrawLine>
	if ((y + h) >= SH1106_HEIGHT) {
		h = SH1106_HEIGHT - y;
	}

	/* Draw lines */
	for (i = 0; i <= h; i++) {
   21720:	e0bffb03 	ldbu	r2,-20(fp)
   21724:	10800044 	addi	r2,r2,1
   21728:	e0bffb05 	stb	r2,-20(fp)
   2172c:	e0bffb03 	ldbu	r2,-20(fp)
   21730:	10bfffcc 	andi	r2,r2,65535
   21734:	e0ffff0b 	ldhu	r3,-4(fp)
   21738:	18bfe82e 	bgeu	r3,r2,216dc <__alt_data_end+0xfffe16dc>
   2173c:	00000106 	br	21744 <SH1106_DrawFilledRectangle+0x100>
	if (
		x >= SH1106_WIDTH ||
		y >= SH1106_HEIGHT
	) {
		/* Return error */
		return;
   21740:	0001883a 	nop
	/* Draw lines */
	for (i = 0; i <= h; i++) {
		/* Draw lines */
		SH1106_DrawLine(x, y + i, x + w, y + i, c);
	}
}
   21744:	e037883a 	mov	sp,fp
   21748:	dfc00117 	ldw	ra,4(sp)
   2174c:	df000017 	ldw	fp,0(sp)
   21750:	dec00204 	addi	sp,sp,8
   21754:	f800283a 	ret

00021758 <SH1106_DrawTriangle>:

void SH1106_DrawTriangle(uint16_t x1, uint16_t y1, uint16_t x2, uint16_t y2, uint16_t x3, uint16_t y3, SH1106_COLOR_t color) {
   21758:	defff704 	addi	sp,sp,-36
   2175c:	dfc00815 	stw	ra,32(sp)
   21760:	df000715 	stw	fp,28(sp)
   21764:	df000704 	addi	fp,sp,28
   21768:	2013883a 	mov	r9,r4
   2176c:	2811883a 	mov	r8,r5
   21770:	300b883a 	mov	r5,r6
   21774:	3809883a 	mov	r4,r7
   21778:	e0c00217 	ldw	r3,8(fp)
   2177c:	e0800317 	ldw	r2,12(fp)
   21780:	e27ffa0d 	sth	r9,-24(fp)
   21784:	e23ffb0d 	sth	r8,-20(fp)
   21788:	e17ffc0d 	sth	r5,-16(fp)
   2178c:	e13ffd0d 	sth	r4,-12(fp)
   21790:	e0fffe0d 	sth	r3,-8(fp)
   21794:	e0bfff0d 	sth	r2,-4(fp)
	/* Draw lines */
	SH1106_DrawLine(x1, y1, x2, y2, color);
   21798:	e0fffa0b 	ldhu	r3,-24(fp)
   2179c:	e13ffb0b 	ldhu	r4,-20(fp)
   217a0:	e17ffc0b 	ldhu	r5,-16(fp)
   217a4:	e1bffd0b 	ldhu	r6,-12(fp)
   217a8:	e0800417 	ldw	r2,16(fp)
   217ac:	d8800015 	stw	r2,0(sp)
   217b0:	300f883a 	mov	r7,r6
   217b4:	280d883a 	mov	r6,r5
   217b8:	200b883a 	mov	r5,r4
   217bc:	1809883a 	mov	r4,r3
   217c0:	00211940 	call	21194 <SH1106_DrawLine>
	SH1106_DrawLine(x2, y2, x3, y3, color);
   217c4:	e0fffc0b 	ldhu	r3,-16(fp)
   217c8:	e13ffd0b 	ldhu	r4,-12(fp)
   217cc:	e17ffe0b 	ldhu	r5,-8(fp)
   217d0:	e1bfff0b 	ldhu	r6,-4(fp)
   217d4:	e0800417 	ldw	r2,16(fp)
   217d8:	d8800015 	stw	r2,0(sp)
   217dc:	300f883a 	mov	r7,r6
   217e0:	280d883a 	mov	r6,r5
   217e4:	200b883a 	mov	r5,r4
   217e8:	1809883a 	mov	r4,r3
   217ec:	00211940 	call	21194 <SH1106_DrawLine>
	SH1106_DrawLine(x3, y3, x1, y1, color);
   217f0:	e0fffe0b 	ldhu	r3,-8(fp)
   217f4:	e13fff0b 	ldhu	r4,-4(fp)
   217f8:	e17ffa0b 	ldhu	r5,-24(fp)
   217fc:	e1bffb0b 	ldhu	r6,-20(fp)
   21800:	e0800417 	ldw	r2,16(fp)
   21804:	d8800015 	stw	r2,0(sp)
   21808:	300f883a 	mov	r7,r6
   2180c:	280d883a 	mov	r6,r5
   21810:	200b883a 	mov	r5,r4
   21814:	1809883a 	mov	r4,r3
   21818:	00211940 	call	21194 <SH1106_DrawLine>
}
   2181c:	0001883a 	nop
   21820:	e037883a 	mov	sp,fp
   21824:	dfc00117 	ldw	ra,4(sp)
   21828:	df000017 	ldw	fp,0(sp)
   2182c:	dec00204 	addi	sp,sp,8
   21830:	f800283a 	ret

00021834 <SH1106_DrawFilledTriangle>:


void SH1106_DrawFilledTriangle(uint16_t x1, uint16_t y1, uint16_t x2, uint16_t y2, uint16_t x3, uint16_t y3, SH1106_COLOR_t color) {
   21834:	defff004 	addi	sp,sp,-64
   21838:	dfc00f15 	stw	ra,60(sp)
   2183c:	df000e15 	stw	fp,56(sp)
   21840:	df000e04 	addi	fp,sp,56
   21844:	2013883a 	mov	r9,r4
   21848:	2811883a 	mov	r8,r5
   2184c:	300b883a 	mov	r5,r6
   21850:	3809883a 	mov	r4,r7
   21854:	e0c00217 	ldw	r3,8(fp)
   21858:	e0800317 	ldw	r2,12(fp)
   2185c:	e27ffa0d 	sth	r9,-24(fp)
   21860:	e23ffb0d 	sth	r8,-20(fp)
   21864:	e17ffc0d 	sth	r5,-16(fp)
   21868:	e13ffd0d 	sth	r4,-12(fp)
   2186c:	e0fffe0d 	sth	r3,-8(fp)
   21870:	e0bfff0d 	sth	r2,-4(fp)
	int16_t deltax = 0, deltay = 0, x = 0, y = 0, xinc1 = 0, xinc2 = 0,
   21874:	e03ff88d 	sth	zero,-30(fp)
   21878:	e03ff90d 	sth	zero,-28(fp)
   2187c:	e03ff30d 	sth	zero,-52(fp)
   21880:	e03ff38d 	sth	zero,-50(fp)
   21884:	e03ff40d 	sth	zero,-48(fp)
   21888:	e03ff48d 	sth	zero,-46(fp)
	yinc1 = 0, yinc2 = 0, den = 0, num = 0, numadd = 0, numpixels = 0,
   2188c:	e03ff50d 	sth	zero,-44(fp)
   21890:	e03ff58d 	sth	zero,-42(fp)
   21894:	e03ff60d 	sth	zero,-40(fp)
   21898:	e03ff68d 	sth	zero,-38(fp)
   2189c:	e03ff70d 	sth	zero,-36(fp)
   218a0:	e03ff78d 	sth	zero,-34(fp)
	curpixel = 0;
   218a4:	e03ff80d 	sth	zero,-32(fp)

	deltax = ABS(x2 - x1);
   218a8:	e0fffc0b 	ldhu	r3,-16(fp)
   218ac:	e0bffa0b 	ldhu	r2,-24(fp)
   218b0:	1885c83a 	sub	r2,r3,r2
   218b4:	1000010e 	bge	r2,zero,218bc <SH1106_DrawFilledTriangle+0x88>
   218b8:	0085c83a 	sub	r2,zero,r2
   218bc:	e0bff88d 	sth	r2,-30(fp)
	deltay = ABS(y2 - y1);
   218c0:	e0fffd0b 	ldhu	r3,-12(fp)
   218c4:	e0bffb0b 	ldhu	r2,-20(fp)
   218c8:	1885c83a 	sub	r2,r3,r2
   218cc:	1000010e 	bge	r2,zero,218d4 <SH1106_DrawFilledTriangle+0xa0>
   218d0:	0085c83a 	sub	r2,zero,r2
   218d4:	e0bff90d 	sth	r2,-28(fp)
	x = x1;
   218d8:	e0bffa0b 	ldhu	r2,-24(fp)
   218dc:	e0bff30d 	sth	r2,-52(fp)
	y = y1;
   218e0:	e0bffb0b 	ldhu	r2,-20(fp)
   218e4:	e0bff38d 	sth	r2,-50(fp)

	if (x2 >= x1) {
   218e8:	e0fffc0b 	ldhu	r3,-16(fp)
   218ec:	e0bffa0b 	ldhu	r2,-24(fp)
   218f0:	18800536 	bltu	r3,r2,21908 <SH1106_DrawFilledTriangle+0xd4>
		xinc1 = 1;
   218f4:	00800044 	movi	r2,1
   218f8:	e0bff40d 	sth	r2,-48(fp)
		xinc2 = 1;
   218fc:	00800044 	movi	r2,1
   21900:	e0bff48d 	sth	r2,-46(fp)
   21904:	00000406 	br	21918 <SH1106_DrawFilledTriangle+0xe4>
	} else {
		xinc1 = -1;
   21908:	00bfffc4 	movi	r2,-1
   2190c:	e0bff40d 	sth	r2,-48(fp)
		xinc2 = -1;
   21910:	00bfffc4 	movi	r2,-1
   21914:	e0bff48d 	sth	r2,-46(fp)
	}

	if (y2 >= y1) {
   21918:	e0fffd0b 	ldhu	r3,-12(fp)
   2191c:	e0bffb0b 	ldhu	r2,-20(fp)
   21920:	18800536 	bltu	r3,r2,21938 <SH1106_DrawFilledTriangle+0x104>
		yinc1 = 1;
   21924:	00800044 	movi	r2,1
   21928:	e0bff50d 	sth	r2,-44(fp)
		yinc2 = 1;
   2192c:	00800044 	movi	r2,1
   21930:	e0bff58d 	sth	r2,-42(fp)
   21934:	00000406 	br	21948 <SH1106_DrawFilledTriangle+0x114>
	} else {
		yinc1 = -1;
   21938:	00bfffc4 	movi	r2,-1
   2193c:	e0bff50d 	sth	r2,-44(fp)
		yinc2 = -1;
   21940:	00bfffc4 	movi	r2,-1
   21944:	e0bff58d 	sth	r2,-42(fp)
	}

	if (deltax >= deltay){
   21948:	e0fff88f 	ldh	r3,-30(fp)
   2194c:	e0bff90f 	ldh	r2,-28(fp)
   21950:	18800e16 	blt	r3,r2,2198c <SH1106_DrawFilledTriangle+0x158>
		xinc1 = 0;
   21954:	e03ff40d 	sth	zero,-48(fp)
		yinc2 = 0;
   21958:	e03ff58d 	sth	zero,-42(fp)
		den = deltax;
   2195c:	e0bff88b 	ldhu	r2,-30(fp)
   21960:	e0bff60d 	sth	r2,-40(fp)
		num = deltax / 2;
   21964:	e0bff88f 	ldh	r2,-30(fp)
   21968:	1006d7fa 	srli	r3,r2,31
   2196c:	1885883a 	add	r2,r3,r2
   21970:	1005d07a 	srai	r2,r2,1
   21974:	e0bff68d 	sth	r2,-38(fp)
		numadd = deltay;
   21978:	e0bff90b 	ldhu	r2,-28(fp)
   2197c:	e0bff70d 	sth	r2,-36(fp)
		numpixels = deltax;
   21980:	e0bff88b 	ldhu	r2,-30(fp)
   21984:	e0bff78d 	sth	r2,-34(fp)
   21988:	00000d06 	br	219c0 <SH1106_DrawFilledTriangle+0x18c>
	} else {
		xinc2 = 0;
   2198c:	e03ff48d 	sth	zero,-46(fp)
		yinc1 = 0;
   21990:	e03ff50d 	sth	zero,-44(fp)
		den = deltay;
   21994:	e0bff90b 	ldhu	r2,-28(fp)
   21998:	e0bff60d 	sth	r2,-40(fp)
		num = deltay / 2;
   2199c:	e0bff90f 	ldh	r2,-28(fp)
   219a0:	1006d7fa 	srli	r3,r2,31
   219a4:	1885883a 	add	r2,r3,r2
   219a8:	1005d07a 	srai	r2,r2,1
   219ac:	e0bff68d 	sth	r2,-38(fp)
		numadd = deltax;
   219b0:	e0bff88b 	ldhu	r2,-30(fp)
   219b4:	e0bff70d 	sth	r2,-36(fp)
		numpixels = deltay;
   219b8:	e0bff90b 	ldhu	r2,-28(fp)
   219bc:	e0bff78d 	sth	r2,-34(fp)
	}

	for (curpixel = 0; curpixel <= numpixels; curpixel++) {
   219c0:	e03ff80d 	sth	zero,-32(fp)
   219c4:	00002b06 	br	21a74 <SH1106_DrawFilledTriangle+0x240>
		SH1106_DrawLine(x, y, x3, y3, color);
   219c8:	e0bff30b 	ldhu	r2,-52(fp)
   219cc:	10ffffcc 	andi	r3,r2,65535
   219d0:	e0bff38b 	ldhu	r2,-50(fp)
   219d4:	113fffcc 	andi	r4,r2,65535
   219d8:	e17ffe0b 	ldhu	r5,-8(fp)
   219dc:	e1bfff0b 	ldhu	r6,-4(fp)
   219e0:	e0800417 	ldw	r2,16(fp)
   219e4:	d8800015 	stw	r2,0(sp)
   219e8:	300f883a 	mov	r7,r6
   219ec:	280d883a 	mov	r6,r5
   219f0:	200b883a 	mov	r5,r4
   219f4:	1809883a 	mov	r4,r3
   219f8:	00211940 	call	21194 <SH1106_DrawLine>

		num += numadd;
   219fc:	e0fff68b 	ldhu	r3,-38(fp)
   21a00:	e0bff70b 	ldhu	r2,-36(fp)
   21a04:	1885883a 	add	r2,r3,r2
   21a08:	e0bff68d 	sth	r2,-38(fp)
		if (num >= den) {
   21a0c:	e0fff68f 	ldh	r3,-38(fp)
   21a10:	e0bff60f 	ldh	r2,-40(fp)
   21a14:	18800c16 	blt	r3,r2,21a48 <SH1106_DrawFilledTriangle+0x214>
			num -= den;
   21a18:	e0fff68b 	ldhu	r3,-38(fp)
   21a1c:	e0bff60b 	ldhu	r2,-40(fp)
   21a20:	1885c83a 	sub	r2,r3,r2
   21a24:	e0bff68d 	sth	r2,-38(fp)
			x += xinc1;
   21a28:	e0fff30b 	ldhu	r3,-52(fp)
   21a2c:	e0bff40b 	ldhu	r2,-48(fp)
   21a30:	1885883a 	add	r2,r3,r2
   21a34:	e0bff30d 	sth	r2,-52(fp)
			y += yinc1;
   21a38:	e0fff38b 	ldhu	r3,-50(fp)
   21a3c:	e0bff50b 	ldhu	r2,-44(fp)
   21a40:	1885883a 	add	r2,r3,r2
   21a44:	e0bff38d 	sth	r2,-50(fp)
		}
		x += xinc2;
   21a48:	e0fff30b 	ldhu	r3,-52(fp)
   21a4c:	e0bff48b 	ldhu	r2,-46(fp)
   21a50:	1885883a 	add	r2,r3,r2
   21a54:	e0bff30d 	sth	r2,-52(fp)
		y += yinc2;
   21a58:	e0fff38b 	ldhu	r3,-50(fp)
   21a5c:	e0bff58b 	ldhu	r2,-42(fp)
   21a60:	1885883a 	add	r2,r3,r2
   21a64:	e0bff38d 	sth	r2,-50(fp)
		num = deltay / 2;
		numadd = deltax;
		numpixels = deltay;
	}

	for (curpixel = 0; curpixel <= numpixels; curpixel++) {
   21a68:	e0bff80b 	ldhu	r2,-32(fp)
   21a6c:	10800044 	addi	r2,r2,1
   21a70:	e0bff80d 	sth	r2,-32(fp)
   21a74:	e0bff80f 	ldh	r2,-32(fp)
   21a78:	e0fff78f 	ldh	r3,-34(fp)
   21a7c:	18bfd20e 	bge	r3,r2,219c8 <__alt_data_end+0xfffe19c8>
			y += yinc1;
		}
		x += xinc2;
		y += yinc2;
	}
}
   21a80:	0001883a 	nop
   21a84:	e037883a 	mov	sp,fp
   21a88:	dfc00117 	ldw	ra,4(sp)
   21a8c:	df000017 	ldw	fp,0(sp)
   21a90:	dec00204 	addi	sp,sp,8
   21a94:	f800283a 	ret

00021a98 <SH1106_DrawCircle>:

void SH1106_DrawCircle(int16_t x0, int16_t y0, int16_t r, SH1106_COLOR_t c) {
   21a98:	defff704 	addi	sp,sp,-36
   21a9c:	dfc00815 	stw	ra,32(sp)
   21aa0:	df000715 	stw	fp,28(sp)
   21aa4:	df000704 	addi	fp,sp,28
   21aa8:	2807883a 	mov	r3,r5
   21aac:	3005883a 	mov	r2,r6
   21ab0:	e1ffff15 	stw	r7,-4(fp)
   21ab4:	e13ffc0d 	sth	r4,-16(fp)
   21ab8:	e0fffd0d 	sth	r3,-12(fp)
   21abc:	e0bffe0d 	sth	r2,-8(fp)
	int16_t f = 1 - r;
   21ac0:	e0bffe0b 	ldhu	r2,-8(fp)
   21ac4:	00c00044 	movi	r3,1
   21ac8:	1885c83a 	sub	r2,r3,r2
   21acc:	e0bff90d 	sth	r2,-28(fp)
	int16_t ddF_x = 1;
   21ad0:	00800044 	movi	r2,1
   21ad4:	e0bff98d 	sth	r2,-26(fp)
	int16_t ddF_y = -2 * r;
   21ad8:	e0bffe0b 	ldhu	r2,-8(fp)
   21adc:	0007883a 	mov	r3,zero
   21ae0:	1885c83a 	sub	r2,r3,r2
   21ae4:	1085883a 	add	r2,r2,r2
   21ae8:	e0bffa0d 	sth	r2,-24(fp)
	int16_t x = 0;
   21aec:	e03ffa8d 	sth	zero,-22(fp)
	int16_t y = r;
   21af0:	e0bffe0b 	ldhu	r2,-8(fp)
   21af4:	e0bffb0d 	sth	r2,-20(fp)

    SH1106_DrawPixel(x0, y0 + r, c);
   21af8:	e0bffc0b 	ldhu	r2,-16(fp)
   21afc:	113fffcc 	andi	r4,r2,65535
   21b00:	e0fffd0b 	ldhu	r3,-12(fp)
   21b04:	e0bffe0b 	ldhu	r2,-8(fp)
   21b08:	1885883a 	add	r2,r3,r2
   21b0c:	10bfffcc 	andi	r2,r2,65535
   21b10:	e1bfff17 	ldw	r6,-4(fp)
   21b14:	100b883a 	mov	r5,r2
   21b18:	0020d900 	call	20d90 <SH1106_DrawPixel>
    SH1106_DrawPixel(x0, y0 - r, c);
   21b1c:	e0bffc0b 	ldhu	r2,-16(fp)
   21b20:	113fffcc 	andi	r4,r2,65535
   21b24:	e0fffd0b 	ldhu	r3,-12(fp)
   21b28:	e0bffe0b 	ldhu	r2,-8(fp)
   21b2c:	1885c83a 	sub	r2,r3,r2
   21b30:	10bfffcc 	andi	r2,r2,65535
   21b34:	e1bfff17 	ldw	r6,-4(fp)
   21b38:	100b883a 	mov	r5,r2
   21b3c:	0020d900 	call	20d90 <SH1106_DrawPixel>
    SH1106_DrawPixel(x0 + r, y0, c);
   21b40:	e0fffc0b 	ldhu	r3,-16(fp)
   21b44:	e0bffe0b 	ldhu	r2,-8(fp)
   21b48:	1885883a 	add	r2,r3,r2
   21b4c:	10bfffcc 	andi	r2,r2,65535
   21b50:	e0fffd0b 	ldhu	r3,-12(fp)
   21b54:	18ffffcc 	andi	r3,r3,65535
   21b58:	e1bfff17 	ldw	r6,-4(fp)
   21b5c:	180b883a 	mov	r5,r3
   21b60:	1009883a 	mov	r4,r2
   21b64:	0020d900 	call	20d90 <SH1106_DrawPixel>
    SH1106_DrawPixel(x0 - r, y0, c);
   21b68:	e0fffc0b 	ldhu	r3,-16(fp)
   21b6c:	e0bffe0b 	ldhu	r2,-8(fp)
   21b70:	1885c83a 	sub	r2,r3,r2
   21b74:	10bfffcc 	andi	r2,r2,65535
   21b78:	e0fffd0b 	ldhu	r3,-12(fp)
   21b7c:	18ffffcc 	andi	r3,r3,65535
   21b80:	e1bfff17 	ldw	r6,-4(fp)
   21b84:	180b883a 	mov	r5,r3
   21b88:	1009883a 	mov	r4,r2
   21b8c:	0020d900 	call	20d90 <SH1106_DrawPixel>

    while (x < y) {
   21b90:	00006e06 	br	21d4c <SH1106_DrawCircle+0x2b4>
        if (f >= 0) {
   21b94:	e0bff90f 	ldh	r2,-28(fp)
   21b98:	10000a16 	blt	r2,zero,21bc4 <SH1106_DrawCircle+0x12c>
            y--;
   21b9c:	e0bffb0b 	ldhu	r2,-20(fp)
   21ba0:	10bfffc4 	addi	r2,r2,-1
   21ba4:	e0bffb0d 	sth	r2,-20(fp)
            ddF_y += 2;
   21ba8:	e0bffa0b 	ldhu	r2,-24(fp)
   21bac:	10800084 	addi	r2,r2,2
   21bb0:	e0bffa0d 	sth	r2,-24(fp)
            f += ddF_y;
   21bb4:	e0fff90b 	ldhu	r3,-28(fp)
   21bb8:	e0bffa0b 	ldhu	r2,-24(fp)
   21bbc:	1885883a 	add	r2,r3,r2
   21bc0:	e0bff90d 	sth	r2,-28(fp)
        }
        x++;
   21bc4:	e0bffa8b 	ldhu	r2,-22(fp)
   21bc8:	10800044 	addi	r2,r2,1
   21bcc:	e0bffa8d 	sth	r2,-22(fp)
        ddF_x += 2;
   21bd0:	e0bff98b 	ldhu	r2,-26(fp)
   21bd4:	10800084 	addi	r2,r2,2
   21bd8:	e0bff98d 	sth	r2,-26(fp)
        f += ddF_x;
   21bdc:	e0fff90b 	ldhu	r3,-28(fp)
   21be0:	e0bff98b 	ldhu	r2,-26(fp)
   21be4:	1885883a 	add	r2,r3,r2
   21be8:	e0bff90d 	sth	r2,-28(fp)

        SH1106_DrawPixel(x0 + x, y0 + y, c);
   21bec:	e0fffc0b 	ldhu	r3,-16(fp)
   21bf0:	e0bffa8b 	ldhu	r2,-22(fp)
   21bf4:	1885883a 	add	r2,r3,r2
   21bf8:	113fffcc 	andi	r4,r2,65535
   21bfc:	e0fffd0b 	ldhu	r3,-12(fp)
   21c00:	e0bffb0b 	ldhu	r2,-20(fp)
   21c04:	1885883a 	add	r2,r3,r2
   21c08:	10bfffcc 	andi	r2,r2,65535
   21c0c:	e1bfff17 	ldw	r6,-4(fp)
   21c10:	100b883a 	mov	r5,r2
   21c14:	0020d900 	call	20d90 <SH1106_DrawPixel>
        SH1106_DrawPixel(x0 - x, y0 + y, c);
   21c18:	e0fffc0b 	ldhu	r3,-16(fp)
   21c1c:	e0bffa8b 	ldhu	r2,-22(fp)
   21c20:	1885c83a 	sub	r2,r3,r2
   21c24:	113fffcc 	andi	r4,r2,65535
   21c28:	e0fffd0b 	ldhu	r3,-12(fp)
   21c2c:	e0bffb0b 	ldhu	r2,-20(fp)
   21c30:	1885883a 	add	r2,r3,r2
   21c34:	10bfffcc 	andi	r2,r2,65535
   21c38:	e1bfff17 	ldw	r6,-4(fp)
   21c3c:	100b883a 	mov	r5,r2
   21c40:	0020d900 	call	20d90 <SH1106_DrawPixel>
        SH1106_DrawPixel(x0 + x, y0 - y, c);
   21c44:	e0fffc0b 	ldhu	r3,-16(fp)
   21c48:	e0bffa8b 	ldhu	r2,-22(fp)
   21c4c:	1885883a 	add	r2,r3,r2
   21c50:	113fffcc 	andi	r4,r2,65535
   21c54:	e0fffd0b 	ldhu	r3,-12(fp)
   21c58:	e0bffb0b 	ldhu	r2,-20(fp)
   21c5c:	1885c83a 	sub	r2,r3,r2
   21c60:	10bfffcc 	andi	r2,r2,65535
   21c64:	e1bfff17 	ldw	r6,-4(fp)
   21c68:	100b883a 	mov	r5,r2
   21c6c:	0020d900 	call	20d90 <SH1106_DrawPixel>
        SH1106_DrawPixel(x0 - x, y0 - y, c);
   21c70:	e0fffc0b 	ldhu	r3,-16(fp)
   21c74:	e0bffa8b 	ldhu	r2,-22(fp)
   21c78:	1885c83a 	sub	r2,r3,r2
   21c7c:	113fffcc 	andi	r4,r2,65535
   21c80:	e0fffd0b 	ldhu	r3,-12(fp)
   21c84:	e0bffb0b 	ldhu	r2,-20(fp)
   21c88:	1885c83a 	sub	r2,r3,r2
   21c8c:	10bfffcc 	andi	r2,r2,65535
   21c90:	e1bfff17 	ldw	r6,-4(fp)
   21c94:	100b883a 	mov	r5,r2
   21c98:	0020d900 	call	20d90 <SH1106_DrawPixel>

        SH1106_DrawPixel(x0 + y, y0 + x, c);
   21c9c:	e0fffc0b 	ldhu	r3,-16(fp)
   21ca0:	e0bffb0b 	ldhu	r2,-20(fp)
   21ca4:	1885883a 	add	r2,r3,r2
   21ca8:	113fffcc 	andi	r4,r2,65535
   21cac:	e0fffd0b 	ldhu	r3,-12(fp)
   21cb0:	e0bffa8b 	ldhu	r2,-22(fp)
   21cb4:	1885883a 	add	r2,r3,r2
   21cb8:	10bfffcc 	andi	r2,r2,65535
   21cbc:	e1bfff17 	ldw	r6,-4(fp)
   21cc0:	100b883a 	mov	r5,r2
   21cc4:	0020d900 	call	20d90 <SH1106_DrawPixel>
        SH1106_DrawPixel(x0 - y, y0 + x, c);
   21cc8:	e0fffc0b 	ldhu	r3,-16(fp)
   21ccc:	e0bffb0b 	ldhu	r2,-20(fp)
   21cd0:	1885c83a 	sub	r2,r3,r2
   21cd4:	113fffcc 	andi	r4,r2,65535
   21cd8:	e0fffd0b 	ldhu	r3,-12(fp)
   21cdc:	e0bffa8b 	ldhu	r2,-22(fp)
   21ce0:	1885883a 	add	r2,r3,r2
   21ce4:	10bfffcc 	andi	r2,r2,65535
   21ce8:	e1bfff17 	ldw	r6,-4(fp)
   21cec:	100b883a 	mov	r5,r2
   21cf0:	0020d900 	call	20d90 <SH1106_DrawPixel>
        SH1106_DrawPixel(x0 + y, y0 - x, c);
   21cf4:	e0fffc0b 	ldhu	r3,-16(fp)
   21cf8:	e0bffb0b 	ldhu	r2,-20(fp)
   21cfc:	1885883a 	add	r2,r3,r2
   21d00:	113fffcc 	andi	r4,r2,65535
   21d04:	e0fffd0b 	ldhu	r3,-12(fp)
   21d08:	e0bffa8b 	ldhu	r2,-22(fp)
   21d0c:	1885c83a 	sub	r2,r3,r2
   21d10:	10bfffcc 	andi	r2,r2,65535
   21d14:	e1bfff17 	ldw	r6,-4(fp)
   21d18:	100b883a 	mov	r5,r2
   21d1c:	0020d900 	call	20d90 <SH1106_DrawPixel>
        SH1106_DrawPixel(x0 - y, y0 - x, c);
   21d20:	e0fffc0b 	ldhu	r3,-16(fp)
   21d24:	e0bffb0b 	ldhu	r2,-20(fp)
   21d28:	1885c83a 	sub	r2,r3,r2
   21d2c:	113fffcc 	andi	r4,r2,65535
   21d30:	e0fffd0b 	ldhu	r3,-12(fp)
   21d34:	e0bffa8b 	ldhu	r2,-22(fp)
   21d38:	1885c83a 	sub	r2,r3,r2
   21d3c:	10bfffcc 	andi	r2,r2,65535
   21d40:	e1bfff17 	ldw	r6,-4(fp)
   21d44:	100b883a 	mov	r5,r2
   21d48:	0020d900 	call	20d90 <SH1106_DrawPixel>
    SH1106_DrawPixel(x0, y0 + r, c);
    SH1106_DrawPixel(x0, y0 - r, c);
    SH1106_DrawPixel(x0 + r, y0, c);
    SH1106_DrawPixel(x0 - r, y0, c);

    while (x < y) {
   21d4c:	e0fffa8f 	ldh	r3,-22(fp)
   21d50:	e0bffb0f 	ldh	r2,-20(fp)
   21d54:	18bf8f16 	blt	r3,r2,21b94 <__alt_data_end+0xfffe1b94>
        SH1106_DrawPixel(x0 + y, y0 + x, c);
        SH1106_DrawPixel(x0 - y, y0 + x, c);
        SH1106_DrawPixel(x0 + y, y0 - x, c);
        SH1106_DrawPixel(x0 - y, y0 - x, c);
    }
}
   21d58:	0001883a 	nop
   21d5c:	e037883a 	mov	sp,fp
   21d60:	dfc00117 	ldw	ra,4(sp)
   21d64:	df000017 	ldw	fp,0(sp)
   21d68:	dec00204 	addi	sp,sp,8
   21d6c:	f800283a 	ret

00021d70 <SH1106_DrawFilledCircle>:

void SH1106_DrawFilledCircle(int16_t x0, int16_t y0, int16_t r, SH1106_COLOR_t c) {
   21d70:	defff604 	addi	sp,sp,-40
   21d74:	dfc00915 	stw	ra,36(sp)
   21d78:	df000815 	stw	fp,32(sp)
   21d7c:	df000804 	addi	fp,sp,32
   21d80:	2807883a 	mov	r3,r5
   21d84:	3005883a 	mov	r2,r6
   21d88:	e1ffff15 	stw	r7,-4(fp)
   21d8c:	e13ffc0d 	sth	r4,-16(fp)
   21d90:	e0fffd0d 	sth	r3,-12(fp)
   21d94:	e0bffe0d 	sth	r2,-8(fp)
	int16_t f = 1 - r;
   21d98:	e0bffe0b 	ldhu	r2,-8(fp)
   21d9c:	00c00044 	movi	r3,1
   21da0:	1885c83a 	sub	r2,r3,r2
   21da4:	e0bff90d 	sth	r2,-28(fp)
	int16_t ddF_x = 1;
   21da8:	00800044 	movi	r2,1
   21dac:	e0bff98d 	sth	r2,-26(fp)
	int16_t ddF_y = -2 * r;
   21db0:	e0bffe0b 	ldhu	r2,-8(fp)
   21db4:	0007883a 	mov	r3,zero
   21db8:	1885c83a 	sub	r2,r3,r2
   21dbc:	1085883a 	add	r2,r2,r2
   21dc0:	e0bffa0d 	sth	r2,-24(fp)
	int16_t x = 0;
   21dc4:	e03ffa8d 	sth	zero,-22(fp)
	int16_t y = r;
   21dc8:	e0bffe0b 	ldhu	r2,-8(fp)
   21dcc:	e0bffb0d 	sth	r2,-20(fp)

    SH1106_DrawPixel(x0, y0 + r, c);
   21dd0:	e0bffc0b 	ldhu	r2,-16(fp)
   21dd4:	113fffcc 	andi	r4,r2,65535
   21dd8:	e0fffd0b 	ldhu	r3,-12(fp)
   21ddc:	e0bffe0b 	ldhu	r2,-8(fp)
   21de0:	1885883a 	add	r2,r3,r2
   21de4:	10bfffcc 	andi	r2,r2,65535
   21de8:	e1bfff17 	ldw	r6,-4(fp)
   21dec:	100b883a 	mov	r5,r2
   21df0:	0020d900 	call	20d90 <SH1106_DrawPixel>
    SH1106_DrawPixel(x0, y0 - r, c);
   21df4:	e0bffc0b 	ldhu	r2,-16(fp)
   21df8:	113fffcc 	andi	r4,r2,65535
   21dfc:	e0fffd0b 	ldhu	r3,-12(fp)
   21e00:	e0bffe0b 	ldhu	r2,-8(fp)
   21e04:	1885c83a 	sub	r2,r3,r2
   21e08:	10bfffcc 	andi	r2,r2,65535
   21e0c:	e1bfff17 	ldw	r6,-4(fp)
   21e10:	100b883a 	mov	r5,r2
   21e14:	0020d900 	call	20d90 <SH1106_DrawPixel>
    SH1106_DrawPixel(x0 + r, y0, c);
   21e18:	e0fffc0b 	ldhu	r3,-16(fp)
   21e1c:	e0bffe0b 	ldhu	r2,-8(fp)
   21e20:	1885883a 	add	r2,r3,r2
   21e24:	10bfffcc 	andi	r2,r2,65535
   21e28:	e0fffd0b 	ldhu	r3,-12(fp)
   21e2c:	18ffffcc 	andi	r3,r3,65535
   21e30:	e1bfff17 	ldw	r6,-4(fp)
   21e34:	180b883a 	mov	r5,r3
   21e38:	1009883a 	mov	r4,r2
   21e3c:	0020d900 	call	20d90 <SH1106_DrawPixel>
    SH1106_DrawPixel(x0 - r, y0, c);
   21e40:	e0fffc0b 	ldhu	r3,-16(fp)
   21e44:	e0bffe0b 	ldhu	r2,-8(fp)
   21e48:	1885c83a 	sub	r2,r3,r2
   21e4c:	10bfffcc 	andi	r2,r2,65535
   21e50:	e0fffd0b 	ldhu	r3,-12(fp)
   21e54:	18ffffcc 	andi	r3,r3,65535
   21e58:	e1bfff17 	ldw	r6,-4(fp)
   21e5c:	180b883a 	mov	r5,r3
   21e60:	1009883a 	mov	r4,r2
   21e64:	0020d900 	call	20d90 <SH1106_DrawPixel>
    SH1106_DrawLine(x0 - r, y0, x0 + r, y0, c);
   21e68:	e0fffc0b 	ldhu	r3,-16(fp)
   21e6c:	e0bffe0b 	ldhu	r2,-8(fp)
   21e70:	1885c83a 	sub	r2,r3,r2
   21e74:	113fffcc 	andi	r4,r2,65535
   21e78:	e0bffd0b 	ldhu	r2,-12(fp)
   21e7c:	117fffcc 	andi	r5,r2,65535
   21e80:	e0fffc0b 	ldhu	r3,-16(fp)
   21e84:	e0bffe0b 	ldhu	r2,-8(fp)
   21e88:	1885883a 	add	r2,r3,r2
   21e8c:	10ffffcc 	andi	r3,r2,65535
   21e90:	e0bffd0b 	ldhu	r2,-12(fp)
   21e94:	11bfffcc 	andi	r6,r2,65535
   21e98:	e0bfff17 	ldw	r2,-4(fp)
   21e9c:	d8800015 	stw	r2,0(sp)
   21ea0:	300f883a 	mov	r7,r6
   21ea4:	180d883a 	mov	r6,r3
   21ea8:	00211940 	call	21194 <SH1106_DrawLine>

    while (x < y) {
   21eac:	00006606 	br	22048 <SH1106_DrawFilledCircle+0x2d8>
        if (f >= 0) {
   21eb0:	e0bff90f 	ldh	r2,-28(fp)
   21eb4:	10000a16 	blt	r2,zero,21ee0 <SH1106_DrawFilledCircle+0x170>
            y--;
   21eb8:	e0bffb0b 	ldhu	r2,-20(fp)
   21ebc:	10bfffc4 	addi	r2,r2,-1
   21ec0:	e0bffb0d 	sth	r2,-20(fp)
            ddF_y += 2;
   21ec4:	e0bffa0b 	ldhu	r2,-24(fp)
   21ec8:	10800084 	addi	r2,r2,2
   21ecc:	e0bffa0d 	sth	r2,-24(fp)
            f += ddF_y;
   21ed0:	e0fff90b 	ldhu	r3,-28(fp)
   21ed4:	e0bffa0b 	ldhu	r2,-24(fp)
   21ed8:	1885883a 	add	r2,r3,r2
   21edc:	e0bff90d 	sth	r2,-28(fp)
        }
        x++;
   21ee0:	e0bffa8b 	ldhu	r2,-22(fp)
   21ee4:	10800044 	addi	r2,r2,1
   21ee8:	e0bffa8d 	sth	r2,-22(fp)
        ddF_x += 2;
   21eec:	e0bff98b 	ldhu	r2,-26(fp)
   21ef0:	10800084 	addi	r2,r2,2
   21ef4:	e0bff98d 	sth	r2,-26(fp)
        f += ddF_x;
   21ef8:	e0fff90b 	ldhu	r3,-28(fp)
   21efc:	e0bff98b 	ldhu	r2,-26(fp)
   21f00:	1885883a 	add	r2,r3,r2
   21f04:	e0bff90d 	sth	r2,-28(fp)

        SH1106_DrawLine(x0 - x, y0 + y, x0 + x, y0 + y, c);
   21f08:	e0fffc0b 	ldhu	r3,-16(fp)
   21f0c:	e0bffa8b 	ldhu	r2,-22(fp)
   21f10:	1885c83a 	sub	r2,r3,r2
   21f14:	113fffcc 	andi	r4,r2,65535
   21f18:	e0fffd0b 	ldhu	r3,-12(fp)
   21f1c:	e0bffb0b 	ldhu	r2,-20(fp)
   21f20:	1885883a 	add	r2,r3,r2
   21f24:	117fffcc 	andi	r5,r2,65535
   21f28:	e0fffc0b 	ldhu	r3,-16(fp)
   21f2c:	e0bffa8b 	ldhu	r2,-22(fp)
   21f30:	1885883a 	add	r2,r3,r2
   21f34:	11bfffcc 	andi	r6,r2,65535
   21f38:	e0fffd0b 	ldhu	r3,-12(fp)
   21f3c:	e0bffb0b 	ldhu	r2,-20(fp)
   21f40:	1885883a 	add	r2,r3,r2
   21f44:	10ffffcc 	andi	r3,r2,65535
   21f48:	e0bfff17 	ldw	r2,-4(fp)
   21f4c:	d8800015 	stw	r2,0(sp)
   21f50:	180f883a 	mov	r7,r3
   21f54:	00211940 	call	21194 <SH1106_DrawLine>
        SH1106_DrawLine(x0 + x, y0 - y, x0 - x, y0 - y, c);
   21f58:	e0fffc0b 	ldhu	r3,-16(fp)
   21f5c:	e0bffa8b 	ldhu	r2,-22(fp)
   21f60:	1885883a 	add	r2,r3,r2
   21f64:	113fffcc 	andi	r4,r2,65535
   21f68:	e0fffd0b 	ldhu	r3,-12(fp)
   21f6c:	e0bffb0b 	ldhu	r2,-20(fp)
   21f70:	1885c83a 	sub	r2,r3,r2
   21f74:	117fffcc 	andi	r5,r2,65535
   21f78:	e0fffc0b 	ldhu	r3,-16(fp)
   21f7c:	e0bffa8b 	ldhu	r2,-22(fp)
   21f80:	1885c83a 	sub	r2,r3,r2
   21f84:	11bfffcc 	andi	r6,r2,65535
   21f88:	e0fffd0b 	ldhu	r3,-12(fp)
   21f8c:	e0bffb0b 	ldhu	r2,-20(fp)
   21f90:	1885c83a 	sub	r2,r3,r2
   21f94:	10ffffcc 	andi	r3,r2,65535
   21f98:	e0bfff17 	ldw	r2,-4(fp)
   21f9c:	d8800015 	stw	r2,0(sp)
   21fa0:	180f883a 	mov	r7,r3
   21fa4:	00211940 	call	21194 <SH1106_DrawLine>

        SH1106_DrawLine(x0 + y, y0 + x, x0 - y, y0 + x, c);
   21fa8:	e0fffc0b 	ldhu	r3,-16(fp)
   21fac:	e0bffb0b 	ldhu	r2,-20(fp)
   21fb0:	1885883a 	add	r2,r3,r2
   21fb4:	113fffcc 	andi	r4,r2,65535
   21fb8:	e0fffd0b 	ldhu	r3,-12(fp)
   21fbc:	e0bffa8b 	ldhu	r2,-22(fp)
   21fc0:	1885883a 	add	r2,r3,r2
   21fc4:	117fffcc 	andi	r5,r2,65535
   21fc8:	e0fffc0b 	ldhu	r3,-16(fp)
   21fcc:	e0bffb0b 	ldhu	r2,-20(fp)
   21fd0:	1885c83a 	sub	r2,r3,r2
   21fd4:	11bfffcc 	andi	r6,r2,65535
   21fd8:	e0fffd0b 	ldhu	r3,-12(fp)
   21fdc:	e0bffa8b 	ldhu	r2,-22(fp)
   21fe0:	1885883a 	add	r2,r3,r2
   21fe4:	10ffffcc 	andi	r3,r2,65535
   21fe8:	e0bfff17 	ldw	r2,-4(fp)
   21fec:	d8800015 	stw	r2,0(sp)
   21ff0:	180f883a 	mov	r7,r3
   21ff4:	00211940 	call	21194 <SH1106_DrawLine>
        SH1106_DrawLine(x0 + y, y0 - x, x0 - y, y0 - x, c);
   21ff8:	e0fffc0b 	ldhu	r3,-16(fp)
   21ffc:	e0bffb0b 	ldhu	r2,-20(fp)
   22000:	1885883a 	add	r2,r3,r2
   22004:	113fffcc 	andi	r4,r2,65535
   22008:	e0fffd0b 	ldhu	r3,-12(fp)
   2200c:	e0bffa8b 	ldhu	r2,-22(fp)
   22010:	1885c83a 	sub	r2,r3,r2
   22014:	117fffcc 	andi	r5,r2,65535
   22018:	e0fffc0b 	ldhu	r3,-16(fp)
   2201c:	e0bffb0b 	ldhu	r2,-20(fp)
   22020:	1885c83a 	sub	r2,r3,r2
   22024:	11bfffcc 	andi	r6,r2,65535
   22028:	e0fffd0b 	ldhu	r3,-12(fp)
   2202c:	e0bffa8b 	ldhu	r2,-22(fp)
   22030:	1885c83a 	sub	r2,r3,r2
   22034:	10ffffcc 	andi	r3,r2,65535
   22038:	e0bfff17 	ldw	r2,-4(fp)
   2203c:	d8800015 	stw	r2,0(sp)
   22040:	180f883a 	mov	r7,r3
   22044:	00211940 	call	21194 <SH1106_DrawLine>
    SH1106_DrawPixel(x0, y0 - r, c);
    SH1106_DrawPixel(x0 + r, y0, c);
    SH1106_DrawPixel(x0 - r, y0, c);
    SH1106_DrawLine(x0 - r, y0, x0 + r, y0, c);

    while (x < y) {
   22048:	e0fffa8f 	ldh	r3,-22(fp)
   2204c:	e0bffb0f 	ldh	r2,-20(fp)
   22050:	18bf9716 	blt	r3,r2,21eb0 <__alt_data_end+0xfffe1eb0>
        SH1106_DrawLine(x0 + x, y0 - y, x0 - x, y0 - y, c);

        SH1106_DrawLine(x0 + y, y0 + x, x0 - y, y0 + x, c);
        SH1106_DrawLine(x0 + y, y0 - x, x0 - y, y0 - x, c);
    }
}
   22054:	0001883a 	nop
   22058:	e037883a 	mov	sp,fp
   2205c:	dfc00117 	ldw	ra,4(sp)
   22060:	df000017 	ldw	fp,0(sp)
   22064:	dec00204 	addi	sp,sp,8
   22068:	f800283a 	ret

0002206c <SH1106_Clear>:



void SH1106_Clear (void)
{
   2206c:	defffe04 	addi	sp,sp,-8
   22070:	dfc00115 	stw	ra,4(sp)
   22074:	df000015 	stw	fp,0(sp)
   22078:	d839883a 	mov	fp,sp
	SH1106_Fill (0);
   2207c:	0009883a 	mov	r4,zero
   22080:	0020d3c0 	call	20d3c <SH1106_Fill>
    SH1106_UpdateScreen();
   22084:	0020c100 	call	20c10 <SH1106_UpdateScreen>
}
   22088:	0001883a 	nop
   2208c:	e037883a 	mov	sp,fp
   22090:	dfc00117 	ldw	ra,4(sp)
   22094:	df000017 	ldw	fp,0(sp)
   22098:	dec00204 	addi	sp,sp,8
   2209c:	f800283a 	ret

000220a0 <SH1106_ON>:
void SH1106_ON(void) {
   220a0:	defffe04 	addi	sp,sp,-8
   220a4:	dfc00115 	stw	ra,4(sp)
   220a8:	df000015 	stw	fp,0(sp)
   220ac:	d839883a 	mov	fp,sp
	SH1106_WRITECOMMAND(0x8D);
   220b0:	01802344 	movi	r6,141
   220b4:	000b883a 	mov	r5,zero
   220b8:	01000f04 	movi	r4,60
   220bc:	002221c0 	call	2221c <SH1106_I2C_Write>
	SH1106_WRITECOMMAND(0x14);
   220c0:	01800504 	movi	r6,20
   220c4:	000b883a 	mov	r5,zero
   220c8:	01000f04 	movi	r4,60
   220cc:	002221c0 	call	2221c <SH1106_I2C_Write>
	SH1106_WRITECOMMAND(0xAF);
   220d0:	01802bc4 	movi	r6,175
   220d4:	000b883a 	mov	r5,zero
   220d8:	01000f04 	movi	r4,60
   220dc:	002221c0 	call	2221c <SH1106_I2C_Write>
}
   220e0:	0001883a 	nop
   220e4:	e037883a 	mov	sp,fp
   220e8:	dfc00117 	ldw	ra,4(sp)
   220ec:	df000017 	ldw	fp,0(sp)
   220f0:	dec00204 	addi	sp,sp,8
   220f4:	f800283a 	ret

000220f8 <SH1106_OFF>:
void SH1106_OFF(void) {
   220f8:	defffe04 	addi	sp,sp,-8
   220fc:	dfc00115 	stw	ra,4(sp)
   22100:	df000015 	stw	fp,0(sp)
   22104:	d839883a 	mov	fp,sp
	SH1106_WRITECOMMAND(0x8D);
   22108:	01802344 	movi	r6,141
   2210c:	000b883a 	mov	r5,zero
   22110:	01000f04 	movi	r4,60
   22114:	002221c0 	call	2221c <SH1106_I2C_Write>
	SH1106_WRITECOMMAND(0x10);
   22118:	01800404 	movi	r6,16
   2211c:	000b883a 	mov	r5,zero
   22120:	01000f04 	movi	r4,60
   22124:	002221c0 	call	2221c <SH1106_I2C_Write>
	SH1106_WRITECOMMAND(0xAE);
   22128:	01802b84 	movi	r6,174
   2212c:	000b883a 	mov	r5,zero
   22130:	01000f04 	movi	r4,60
   22134:	002221c0 	call	2221c <SH1106_I2C_Write>
}
   22138:	0001883a 	nop
   2213c:	e037883a 	mov	sp,fp
   22140:	dfc00117 	ldw	ra,4(sp)
   22144:	df000017 	ldw	fp,0(sp)
   22148:	dec00204 	addi	sp,sp,8
   2214c:	f800283a 	ret

00022150 <SH1106_I2C_WriteMulti>:

void SH1106_I2C_WriteMulti(uint8_t address, uint8_t reg, uint8_t* data, uint16_t count) {
   22150:	deffb904 	addi	sp,sp,-284
   22154:	dfc04615 	stw	ra,280(sp)
   22158:	df004515 	stw	fp,276(sp)
   2215c:	df004504 	addi	fp,sp,276
   22160:	2807883a 	mov	r3,r5
   22164:	e1bffe15 	stw	r6,-8(fp)
   22168:	3805883a 	mov	r2,r7
   2216c:	e13ffc05 	stb	r4,-16(fp)
   22170:	e0fffd05 	stb	r3,-12(fp)
   22174:	e0bfff0d 	sth	r2,-4(fp)
	uint8_t dt[256];
	dt[0] = reg;
   22178:	e0bffd03 	ldbu	r2,-12(fp)
   2217c:	e0bfbb45 	stb	r2,-275(fp)
	uint8_t i;
	for(i = 0; i < count; i++)
   22180:	e03fbb05 	stb	zero,-276(fp)
   22184:	00000c06 	br	221b8 <SH1106_I2C_WriteMulti+0x68>
		dt[i+1] = data[i];
   22188:	e0bfbb03 	ldbu	r2,-276(fp)
   2218c:	10800044 	addi	r2,r2,1
   22190:	e0ffbb03 	ldbu	r3,-276(fp)
   22194:	e13ffe17 	ldw	r4,-8(fp)
   22198:	20c7883a 	add	r3,r4,r3
   2219c:	18c00003 	ldbu	r3,0(r3)
   221a0:	e13fbb44 	addi	r4,fp,-275
   221a4:	2085883a 	add	r2,r4,r2
   221a8:	10c00005 	stb	r3,0(r2)

void SH1106_I2C_WriteMulti(uint8_t address, uint8_t reg, uint8_t* data, uint16_t count) {
	uint8_t dt[256];
	dt[0] = reg;
	uint8_t i;
	for(i = 0; i < count; i++)
   221ac:	e0bfbb03 	ldbu	r2,-276(fp)
   221b0:	10800044 	addi	r2,r2,1
   221b4:	e0bfbb05 	stb	r2,-276(fp)
   221b8:	e0bfbb03 	ldbu	r2,-276(fp)
   221bc:	10ffffcc 	andi	r3,r2,65535
   221c0:	e0bfff0b 	ldhu	r2,-4(fp)
   221c4:	18bff036 	bltu	r3,r2,22188 <__alt_data_end+0xfffe2188>
		dt[i+1] = data[i];
	alt_avalon_i2c_master_target_set(i2c_dev,address);
   221c8:	d0a0e117 	ldw	r2,-31868(gp)
   221cc:	e0fffc03 	ldbu	r3,-16(fp)
   221d0:	180b883a 	mov	r5,r3
   221d4:	1009883a 	mov	r4,r2
   221d8:	00278900 	call	27890 <alt_avalon_i2c_master_target_set>
	alt_avalon_i2c_master_tx(SH1106_I2C, dt, count+1,
   221dc:	d0e0e117 	ldw	r3,-31868(gp)
   221e0:	e0bfff0b 	ldhu	r2,-4(fp)
   221e4:	10800044 	addi	r2,r2,1
   221e8:	1009883a 	mov	r4,r2
   221ec:	e0bfbb44 	addi	r2,fp,-275
   221f0:	000f883a 	mov	r7,zero
   221f4:	200d883a 	mov	r6,r4
   221f8:	100b883a 	mov	r5,r2
   221fc:	1809883a 	mov	r4,r3
   22200:	0027a980 	call	27a98 <alt_avalon_i2c_master_tx>
								ALT_AVALON_I2C_NO_INTERRUPTS);
}
   22204:	0001883a 	nop
   22208:	e037883a 	mov	sp,fp
   2220c:	dfc00117 	ldw	ra,4(sp)
   22210:	df000017 	ldw	fp,0(sp)
   22214:	dec00204 	addi	sp,sp,8
   22218:	f800283a 	ret

0002221c <SH1106_I2C_Write>:


void SH1106_I2C_Write(uint8_t address, uint8_t reg, uint8_t data) {
   2221c:	defffa04 	addi	sp,sp,-24
   22220:	dfc00515 	stw	ra,20(sp)
   22224:	df000415 	stw	fp,16(sp)
   22228:	df000404 	addi	fp,sp,16
   2222c:	2807883a 	mov	r3,r5
   22230:	3005883a 	mov	r2,r6
   22234:	e13ffd05 	stb	r4,-12(fp)
   22238:	e0fffe05 	stb	r3,-8(fp)
   2223c:	e0bfff05 	stb	r2,-4(fp)
	uint8_t dt[2];
	dt[0] = reg;
   22240:	e0bffe03 	ldbu	r2,-8(fp)
   22244:	e0bffc05 	stb	r2,-16(fp)
	dt[1] = data;
   22248:	e0bfff03 	ldbu	r2,-4(fp)
   2224c:	e0bffc45 	stb	r2,-15(fp)
	alt_avalon_i2c_master_target_set(i2c_dev,address);
   22250:	d0a0e117 	ldw	r2,-31868(gp)
   22254:	e0fffd03 	ldbu	r3,-12(fp)
   22258:	180b883a 	mov	r5,r3
   2225c:	1009883a 	mov	r4,r2
   22260:	00278900 	call	27890 <alt_avalon_i2c_master_target_set>
	alt_avalon_i2c_master_tx(SH1106_I2C, dt, 2,
   22264:	d0a0e117 	ldw	r2,-31868(gp)
   22268:	000f883a 	mov	r7,zero
   2226c:	01800084 	movi	r6,2
   22270:	e17ffc04 	addi	r5,fp,-16
   22274:	1009883a 	mov	r4,r2
   22278:	0027a980 	call	27a98 <alt_avalon_i2c_master_tx>
				ALT_AVALON_I2C_NO_INTERRUPTS);
}
   2227c:	0001883a 	nop
   22280:	e037883a 	mov	sp,fp
   22284:	dfc00117 	ldw	ra,4(sp)
   22288:	df000017 	ldw	fp,0(sp)
   2228c:	dec00204 	addi	sp,sp,8
   22290:	f800283a 	ret

00022294 <SH1106_InvertDisplay>:

void SH1106_InvertDisplay (int i)
{
   22294:	defffd04 	addi	sp,sp,-12
   22298:	dfc00215 	stw	ra,8(sp)
   2229c:	df000115 	stw	fp,4(sp)
   222a0:	df000104 	addi	fp,sp,4
   222a4:	e13fff15 	stw	r4,-4(fp)
  if (i) SH1106_WRITECOMMAND (SH1106_INVERTDISPLAY);
   222a8:	e0bfff17 	ldw	r2,-4(fp)
   222ac:	10000526 	beq	r2,zero,222c4 <SH1106_InvertDisplay+0x30>
   222b0:	018029c4 	movi	r6,167
   222b4:	000b883a 	mov	r5,zero
   222b8:	01000f04 	movi	r4,60
   222bc:	002221c0 	call	2221c <SH1106_I2C_Write>

  else SH1106_WRITECOMMAND (SH1106_NORMALDISPLAY);

}
   222c0:	00000406 	br	222d4 <SH1106_InvertDisplay+0x40>

void SH1106_InvertDisplay (int i)
{
  if (i) SH1106_WRITECOMMAND (SH1106_INVERTDISPLAY);

  else SH1106_WRITECOMMAND (SH1106_NORMALDISPLAY);
   222c4:	01802984 	movi	r6,166
   222c8:	000b883a 	mov	r5,zero
   222cc:	01000f04 	movi	r4,60
   222d0:	002221c0 	call	2221c <SH1106_I2C_Write>

}
   222d4:	0001883a 	nop
   222d8:	e037883a 	mov	sp,fp
   222dc:	dfc00117 	ldw	ra,4(sp)
   222e0:	df000017 	ldw	fp,0(sp)
   222e4:	dec00204 	addi	sp,sp,8
   222e8:	f800283a 	ret

000222ec <SH1106_DrawBitmap>:


void SH1106_DrawBitmap(int16_t x, int16_t y, const unsigned char* bitmap, int16_t w, int16_t h, uint16_t color)
{
   222ec:	defff604 	addi	sp,sp,-40
   222f0:	dfc00915 	stw	ra,36(sp)
   222f4:	df000815 	stw	fp,32(sp)
   222f8:	df000804 	addi	fp,sp,32
   222fc:	2011883a 	mov	r8,r4
   22300:	e1bffc15 	stw	r6,-16(fp)
   22304:	3809883a 	mov	r4,r7
   22308:	e0c00217 	ldw	r3,8(fp)
   2230c:	e0800317 	ldw	r2,12(fp)
   22310:	e23ffa0d 	sth	r8,-24(fp)
   22314:	e17ffb0d 	sth	r5,-20(fp)
   22318:	e13ffd0d 	sth	r4,-12(fp)
   2231c:	e0fffe0d 	sth	r3,-8(fp)
   22320:	e0bfff0d 	sth	r2,-4(fp)

    int16_t byteWidth = (w + 7) / 8; // Bitmap scanline pad = whole byte
   22324:	e0bffd0f 	ldh	r2,-12(fp)
   22328:	108001c4 	addi	r2,r2,7
   2232c:	1000010e 	bge	r2,zero,22334 <SH1106_DrawBitmap+0x48>
   22330:	108001c4 	addi	r2,r2,7
   22334:	1005d0fa 	srai	r2,r2,3
   22338:	e0bff98d 	sth	r2,-26(fp)
    uint8_t byte = 0;
   2233c:	e03ff805 	stb	zero,-32(fp)

    for(int16_t j=0; j<h; j++, y++)
   22340:	e03ff88d 	sth	zero,-30(fp)
   22344:	00003906 	br	2242c <SH1106_DrawBitmap+0x140>
    {
        for(int16_t i=0; i<w; i++)
   22348:	e03ff90d 	sth	zero,-28(fp)
   2234c:	00002e06 	br	22408 <SH1106_DrawBitmap+0x11c>
        {
            if(i & 7)
   22350:	e0bff90b 	ldhu	r2,-28(fp)
   22354:	10bfffcc 	andi	r2,r2,65535
   22358:	108001cc 	andi	r2,r2,7
   2235c:	10000426 	beq	r2,zero,22370 <SH1106_DrawBitmap+0x84>
            {
               byte <<= 1;
   22360:	e0bff803 	ldbu	r2,-32(fp)
   22364:	1085883a 	add	r2,r2,r2
   22368:	e0bff805 	stb	r2,-32(fp)
   2236c:	00001306 	br	223bc <SH1106_DrawBitmap+0xd0>
            }
            else
            {
               byte = (*(const unsigned char *)(&bitmap[j * byteWidth + i / 8]));
   22370:	e0bff88f 	ldh	r2,-30(fp)
   22374:	e0fff98f 	ldh	r3,-26(fp)
   22378:	180b883a 	mov	r5,r3
   2237c:	1009883a 	mov	r4,r2
   22380:	0022c300 	call	22c30 <__mulsi3>
   22384:	1007883a 	mov	r3,r2
   22388:	e0bff90f 	ldh	r2,-28(fp)
   2238c:	1000010e 	bge	r2,zero,22394 <SH1106_DrawBitmap+0xa8>
   22390:	108001c4 	addi	r2,r2,7
   22394:	1005d0fa 	srai	r2,r2,3
   22398:	10bfffcc 	andi	r2,r2,65535
   2239c:	10a0001c 	xori	r2,r2,32768
   223a0:	10a00004 	addi	r2,r2,-32768
   223a4:	1885883a 	add	r2,r3,r2
   223a8:	1007883a 	mov	r3,r2
   223ac:	e0bffc17 	ldw	r2,-16(fp)
   223b0:	10c5883a 	add	r2,r2,r3
   223b4:	10800003 	ldbu	r2,0(r2)
   223b8:	e0bff805 	stb	r2,-32(fp)
            }
            if(byte & 0x80) SH1106_DrawPixel(x+i, y, color);
   223bc:	e0bff803 	ldbu	r2,-32(fp)
   223c0:	10803fcc 	andi	r2,r2,255
   223c4:	1080201c 	xori	r2,r2,128
   223c8:	10bfe004 	addi	r2,r2,-128
   223cc:	10000b0e 	bge	r2,zero,223fc <SH1106_DrawBitmap+0x110>
   223d0:	e0fffa0b 	ldhu	r3,-24(fp)
   223d4:	e0bff90b 	ldhu	r2,-28(fp)
   223d8:	1885883a 	add	r2,r3,r2
   223dc:	10bfffcc 	andi	r2,r2,65535
   223e0:	e0fffb0b 	ldhu	r3,-20(fp)
   223e4:	18ffffcc 	andi	r3,r3,65535
   223e8:	e13fff0b 	ldhu	r4,-4(fp)
   223ec:	200d883a 	mov	r6,r4
   223f0:	180b883a 	mov	r5,r3
   223f4:	1009883a 	mov	r4,r2
   223f8:	0020d900 	call	20d90 <SH1106_DrawPixel>
    int16_t byteWidth = (w + 7) / 8; // Bitmap scanline pad = whole byte
    uint8_t byte = 0;

    for(int16_t j=0; j<h; j++, y++)
    {
        for(int16_t i=0; i<w; i++)
   223fc:	e0bff90b 	ldhu	r2,-28(fp)
   22400:	10800044 	addi	r2,r2,1
   22404:	e0bff90d 	sth	r2,-28(fp)
   22408:	e0fff90f 	ldh	r3,-28(fp)
   2240c:	e0bffd0f 	ldh	r2,-12(fp)
   22410:	18bfcf16 	blt	r3,r2,22350 <__alt_data_end+0xfffe2350>
{

    int16_t byteWidth = (w + 7) / 8; // Bitmap scanline pad = whole byte
    uint8_t byte = 0;

    for(int16_t j=0; j<h; j++, y++)
   22414:	e0bff88b 	ldhu	r2,-30(fp)
   22418:	10800044 	addi	r2,r2,1
   2241c:	e0bff88d 	sth	r2,-30(fp)
   22420:	e0bffb0b 	ldhu	r2,-20(fp)
   22424:	10800044 	addi	r2,r2,1
   22428:	e0bffb0d 	sth	r2,-20(fp)
   2242c:	e0fff88f 	ldh	r3,-30(fp)
   22430:	e0bffe0f 	ldh	r2,-8(fp)
   22434:	18bfc416 	blt	r3,r2,22348 <__alt_data_end+0xfffe2348>
               byte = (*(const unsigned char *)(&bitmap[j * byteWidth + i / 8]));
            }
            if(byte & 0x80) SH1106_DrawPixel(x+i, y, color);
        }
    }
}
   22438:	0001883a 	nop
   2243c:	e037883a 	mov	sp,fp
   22440:	dfc00117 	ldw	ra,4(sp)
   22444:	df000017 	ldw	fp,0(sp)
   22448:	dec00204 	addi	sp,sp,8
   2244c:	f800283a 	ret

00022450 <FONTS_GetStringSize>:
	16,
	26,
	Font16x26
};

char* FONTS_GetStringSize(char* str, FONTS_SIZE_t* SizeStruct, FontDef_t* Font) {
   22450:	defffa04 	addi	sp,sp,-24
   22454:	dfc00515 	stw	ra,20(sp)
   22458:	df000415 	stw	fp,16(sp)
   2245c:	dc000315 	stw	r16,12(sp)
   22460:	df000404 	addi	fp,sp,16
   22464:	e13ffc15 	stw	r4,-16(fp)
   22468:	e17ffd15 	stw	r5,-12(fp)
   2246c:	e1bffe15 	stw	r6,-8(fp)
	/* Fill settings */
	SizeStruct->Height = Font->FontHeight;
   22470:	e0bffe17 	ldw	r2,-8(fp)
   22474:	10800043 	ldbu	r2,1(r2)
   22478:	10c03fcc 	andi	r3,r2,255
   2247c:	e0bffd17 	ldw	r2,-12(fp)
   22480:	10c0008d 	sth	r3,2(r2)
	SizeStruct->Length = Font->FontWidth * strlen(str);
   22484:	e0bffe17 	ldw	r2,-8(fp)
   22488:	10800003 	ldbu	r2,0(r2)
   2248c:	14003fcc 	andi	r16,r2,255
   22490:	e13ffc17 	ldw	r4,-16(fp)
   22494:	0025c680 	call	25c68 <strlen>
   22498:	100b883a 	mov	r5,r2
   2249c:	8009883a 	mov	r4,r16
   224a0:	0022c300 	call	22c30 <__mulsi3>
   224a4:	1007883a 	mov	r3,r2
   224a8:	e0bffd17 	ldw	r2,-12(fp)
   224ac:	10c0000d 	sth	r3,0(r2)

	/* Return pointer */
	return str;
   224b0:	e0bffc17 	ldw	r2,-16(fp)
}
   224b4:	e6ffff04 	addi	sp,fp,-4
   224b8:	dfc00217 	ldw	ra,8(sp)
   224bc:	df000117 	ldw	fp,4(sp)
   224c0:	dc000017 	ldw	r16,0(sp)
   224c4:	dec00304 	addi	sp,sp,12
   224c8:	f800283a 	ret

000224cc <I2C0_Init>:
#define AHT_ADDR   0x38

float Temp = 0.0;
float Humid = 0.0;

void I2C0_Init(){
   224cc:	defffe04 	addi	sp,sp,-8
   224d0:	dfc00115 	stw	ra,4(sp)
   224d4:	df000015 	stw	fp,0(sp)
   224d8:	d839883a 	mov	fp,sp
	/* Check if LCD connected to I2C */
	i2c_dev = alt_avalon_i2c_open("/dev/i2c_0");
   224dc:	010000f4 	movhi	r4,3
   224e0:	213dfb04 	addi	r4,r4,-2068
   224e4:	00270c00 	call	270c0 <alt_avalon_i2c_open>
   224e8:	d0a0e115 	stw	r2,-31868(gp)
	if (NULL==i2c_dev)  {
   224ec:	d0a0e117 	ldw	r2,-31868(gp)
   224f0:	1000041e 	bne	r2,zero,22504 <I2C0_Init+0x38>
		printf("Error: Cannot find /dev/i2c_0\n");
   224f4:	010000f4 	movhi	r4,3
   224f8:	213dfe04 	addi	r4,r4,-2056
   224fc:	0025b780 	call	25b78 <puts>
		return;
   22500:	00000306 	br	22510 <I2C0_Init+0x44>
	}
	printf("Successfully open I2C");
   22504:	010000f4 	movhi	r4,3
   22508:	213e0604 	addi	r4,r4,-2024
   2250c:	0025aac0 	call	25aac <printf>
}
   22510:	e037883a 	mov	sp,fp
   22514:	dfc00117 	ldw	ra,4(sp)
   22518:	df000017 	ldw	fp,0(sp)
   2251c:	dec00204 	addi	sp,sp,8
   22520:	f800283a 	ret

00022524 <AHT20_Read>:


void AHT20_Read()
{
   22524:	defffa04 	addi	sp,sp,-24
   22528:	dfc00515 	stw	ra,20(sp)
   2252c:	df000415 	stw	fp,16(sp)
   22530:	df000404 	addi	fp,sp,16
    uint8_t dum[6];
    uint8_t reg = 0x71;
   22534:	00801c44 	movi	r2,113
   22538:	e0bfff85 	stb	r2,-2(fp)

    // Send register address (0x71) and read back 1 byte
    alt_avalon_i2c_master_target_set(i2c_dev, AHT_ADDR);
   2253c:	d0a0e117 	ldw	r2,-31868(gp)
   22540:	01400e04 	movi	r5,56
   22544:	1009883a 	mov	r4,r2
   22548:	00278900 	call	27890 <alt_avalon_i2c_master_target_set>
    alt_avalon_i2c_master_tx(i2c_dev, &reg, 1,
   2254c:	d0a0e117 	ldw	r2,-31868(gp)
   22550:	e0ffff84 	addi	r3,fp,-2
   22554:	000f883a 	mov	r7,zero
   22558:	01800044 	movi	r6,1
   2255c:	180b883a 	mov	r5,r3
   22560:	1009883a 	mov	r4,r2
   22564:	0027a980 	call	27a98 <alt_avalon_i2c_master_tx>
    								ALT_AVALON_I2C_NO_INTERRUPTS);
//    HAL_I2C_Master_Transmit(&HI2C, AHT_ADDR, &reg, 1, 100);
    alt_avalon_i2c_master_rx(i2c_dev, dum, 1,
   22568:	d0a0e117 	ldw	r2,-31868(gp)
   2256c:	e0fffe04 	addi	r3,fp,-8
   22570:	000f883a 	mov	r7,zero
   22574:	01800044 	movi	r6,1
   22578:	180b883a 	mov	r5,r3
   2257c:	1009883a 	mov	r4,r2
   22580:	0027b800 	call	27b80 <alt_avalon_i2c_master_rx>
       								ALT_AVALON_I2C_NO_INTERRUPTS);

    // Check calibration status
    if (!(dum[0] & (1 << 3)))
   22584:	e0bffe03 	ldbu	r2,-8(fp)
   22588:	10803fcc 	andi	r2,r2,255
   2258c:	1080020c 	andi	r2,r2,8
   22590:	10000e1e 	bne	r2,zero,225cc <AHT20_Read+0xa8>
    {
        dum[0] = 0xBE, dum[1] = 0x08, dum[2] = 0x00;
   22594:	00bfef84 	movi	r2,-66
   22598:	e0bffe05 	stb	r2,-8(fp)
   2259c:	00800204 	movi	r2,8
   225a0:	e0bffe45 	stb	r2,-7(fp)
   225a4:	e03ffe85 	stb	zero,-6(fp)
        alt_avalon_i2c_master_tx(i2c_dev, dum, 3,
   225a8:	d0a0e117 	ldw	r2,-31868(gp)
   225ac:	e0fffe04 	addi	r3,fp,-8
   225b0:	000f883a 	mov	r7,zero
   225b4:	018000c4 	movi	r6,3
   225b8:	180b883a 	mov	r5,r3
   225bc:	1009883a 	mov	r4,r2
   225c0:	0027a980 	call	27a98 <alt_avalon_i2c_master_tx>
            								ALT_AVALON_I2C_NO_INTERRUPTS);
        usleep(10000);
   225c4:	0109c404 	movi	r4,10000
   225c8:	0026b6c0 	call	26b6c <usleep>
    }

    // Trigger measurement command
    dum[0] = 0xAC, dum[1] = 0x33, dum[2] = 0x00;
   225cc:	00bfeb04 	movi	r2,-84
   225d0:	e0bffe05 	stb	r2,-8(fp)
   225d4:	00800cc4 	movi	r2,51
   225d8:	e0bffe45 	stb	r2,-7(fp)
   225dc:	e03ffe85 	stb	zero,-6(fp)
    alt_avalon_i2c_master_tx(i2c_dev, dum, 3,
   225e0:	d0a0e117 	ldw	r2,-31868(gp)
   225e4:	e0fffe04 	addi	r3,fp,-8
   225e8:	000f883a 	mov	r7,zero
   225ec:	018000c4 	movi	r6,3
   225f0:	180b883a 	mov	r5,r3
   225f4:	1009883a 	mov	r4,r2
   225f8:	0027a980 	call	27a98 <alt_avalon_i2c_master_tx>
                								ALT_AVALON_I2C_NO_INTERRUPTS);
    usleep(80000);
   225fc:	01000074 	movhi	r4,1
   22600:	210e2004 	addi	r4,r4,14464
   22604:	0026b6c0 	call	26b6c <usleep>

    // Poll until the sensor completes the measurement
    do {
    	alt_avalon_i2c_master_tx(i2c_dev, &reg, 1,
   22608:	d0a0e117 	ldw	r2,-31868(gp)
   2260c:	e0ffff84 	addi	r3,fp,-2
   22610:	000f883a 	mov	r7,zero
   22614:	01800044 	movi	r6,1
   22618:	180b883a 	mov	r5,r3
   2261c:	1009883a 	mov	r4,r2
   22620:	0027a980 	call	27a98 <alt_avalon_i2c_master_tx>
    	    								ALT_AVALON_I2C_NO_INTERRUPTS);
        alt_avalon_i2c_master_rx(i2c_dev, dum, 1,
   22624:	d0a0e117 	ldw	r2,-31868(gp)
   22628:	e0fffe04 	addi	r3,fp,-8
   2262c:	000f883a 	mov	r7,zero
   22630:	01800044 	movi	r6,1
   22634:	180b883a 	mov	r5,r3
   22638:	1009883a 	mov	r4,r2
   2263c:	0027b800 	call	27b80 <alt_avalon_i2c_master_rx>
               								ALT_AVALON_I2C_NO_INTERRUPTS);
        usleep(100);
   22640:	01001904 	movi	r4,100
   22644:	0026b6c0 	call	26b6c <usleep>
    } while (dum[0] & (1 << 7));
   22648:	e0bffe03 	ldbu	r2,-8(fp)
   2264c:	10803fcc 	andi	r2,r2,255
   22650:	1080201c 	xori	r2,r2,128
   22654:	10bfe004 	addi	r2,r2,-128
   22658:	103feb16 	blt	r2,zero,22608 <__alt_data_end+0xfffe2608>

    // Read measurement results (6 bytes)
    alt_avalon_i2c_master_rx(i2c_dev, dum, 6,
   2265c:	d0a0e117 	ldw	r2,-31868(gp)
   22660:	e0fffe04 	addi	r3,fp,-8
   22664:	000f883a 	mov	r7,zero
   22668:	01800184 	movi	r6,6
   2266c:	180b883a 	mov	r5,r3
   22670:	1009883a 	mov	r4,r2
   22674:	0027b800 	call	27b80 <alt_avalon_i2c_master_rx>
                   								ALT_AVALON_I2C_NO_INTERRUPTS);

    // Process humidity and temperature data
    float h20 = (dum[1]) << 12 | (dum[2]) << 4 | (dum[3] >> 4);
   22678:	e0bffe43 	ldbu	r2,-7(fp)
   2267c:	10803fcc 	andi	r2,r2,255
   22680:	1006933a 	slli	r3,r2,12
   22684:	e0bffe83 	ldbu	r2,-6(fp)
   22688:	10803fcc 	andi	r2,r2,255
   2268c:	1004913a 	slli	r2,r2,4
   22690:	1886b03a 	or	r3,r3,r2
   22694:	e0bffec3 	ldbu	r2,-5(fp)
   22698:	10803fcc 	andi	r2,r2,255
   2269c:	1004d13a 	srli	r2,r2,4
   226a0:	10803fcc 	andi	r2,r2,255
   226a4:	1884b03a 	or	r2,r3,r2
   226a8:	1009883a 	mov	r4,r2
   226ac:	0023ad80 	call	23ad8 <__floatsisf>
   226b0:	1007883a 	mov	r3,r2
   226b4:	e0fffc15 	stw	r3,-16(fp)
    float t20 = (dum[3] & 0x0F) << 16 | (dum[4]) << 8 | dum[5];
   226b8:	e0bffec3 	ldbu	r2,-5(fp)
   226bc:	10803fcc 	andi	r2,r2,255
   226c0:	108003cc 	andi	r2,r2,15
   226c4:	1006943a 	slli	r3,r2,16
   226c8:	e0bfff03 	ldbu	r2,-4(fp)
   226cc:	10803fcc 	andi	r2,r2,255
   226d0:	1004923a 	slli	r2,r2,8
   226d4:	1886b03a 	or	r3,r3,r2
   226d8:	e0bfff43 	ldbu	r2,-3(fp)
   226dc:	10803fcc 	andi	r2,r2,255
   226e0:	1884b03a 	or	r2,r3,r2
   226e4:	1009883a 	mov	r4,r2
   226e8:	0023ad80 	call	23ad8 <__floatsisf>
   226ec:	1007883a 	mov	r3,r2
   226f0:	e0fffd15 	stw	r3,-12(fp)
    Temp = (t20 / 1048576.0) * 200.0 - 50.0;
   226f4:	e13ffd17 	ldw	r4,-12(fp)
   226f8:	00257340 	call	25734 <__extendsfdf2>
   226fc:	1011883a 	mov	r8,r2
   22700:	1813883a 	mov	r9,r3
   22704:	000d883a 	mov	r6,zero
   22708:	01d04c34 	movhi	r7,16688
   2270c:	4009883a 	mov	r4,r8
   22710:	480b883a 	mov	r5,r9
   22714:	0023bfc0 	call	23bfc <__divdf3>
   22718:	1009883a 	mov	r4,r2
   2271c:	180b883a 	mov	r5,r3
   22720:	2005883a 	mov	r2,r4
   22724:	2807883a 	mov	r3,r5
   22728:	000d883a 	mov	r6,zero
   2272c:	01d01a74 	movhi	r7,16489
   22730:	1009883a 	mov	r4,r2
   22734:	180b883a 	mov	r5,r3
   22738:	00245cc0 	call	245cc <__muldf3>
   2273c:	1009883a 	mov	r4,r2
   22740:	180b883a 	mov	r5,r3
   22744:	2005883a 	mov	r2,r4
   22748:	2807883a 	mov	r3,r5
   2274c:	000d883a 	mov	r6,zero
   22750:	01d01274 	movhi	r7,16457
   22754:	1009883a 	mov	r4,r2
   22758:	180b883a 	mov	r5,r3
   2275c:	0024e380 	call	24e38 <__subdf3>
   22760:	1009883a 	mov	r4,r2
   22764:	180b883a 	mov	r5,r3
   22768:	2005883a 	mov	r2,r4
   2276c:	2807883a 	mov	r3,r5
   22770:	1009883a 	mov	r4,r2
   22774:	180b883a 	mov	r5,r3
   22778:	00258440 	call	25844 <__truncdfsf2>
   2277c:	1007883a 	mov	r3,r2
   22780:	d0e0df15 	stw	r3,-31876(gp)
    Humid = h20 / 10485.76;
   22784:	e13ffc17 	ldw	r4,-16(fp)
   22788:	00257340 	call	25734 <__extendsfdf2>
   2278c:	1011883a 	mov	r8,r2
   22790:	1813883a 	mov	r9,r3
   22794:	0191ebb4 	movhi	r6,18350
   22798:	31851ec4 	addi	r6,r6,5243
   2279c:	01d03134 	movhi	r7,16580
   227a0:	39deb844 	addi	r7,r7,31457
   227a4:	4009883a 	mov	r4,r8
   227a8:	480b883a 	mov	r5,r9
   227ac:	0023bfc0 	call	23bfc <__divdf3>
   227b0:	1009883a 	mov	r4,r2
   227b4:	180b883a 	mov	r5,r3
   227b8:	2005883a 	mov	r2,r4
   227bc:	2807883a 	mov	r3,r5
   227c0:	1009883a 	mov	r4,r2
   227c4:	180b883a 	mov	r5,r3
   227c8:	00258440 	call	25844 <__truncdfsf2>
   227cc:	1007883a 	mov	r3,r2
   227d0:	d0e0e015 	stw	r3,-31872(gp)

}
   227d4:	0001883a 	nop
   227d8:	e037883a 	mov	sp,fp
   227dc:	dfc00117 	ldw	ra,4(sp)
   227e0:	df000017 	ldw	fp,0(sp)
   227e4:	dec00204 	addi	sp,sp,8
   227e8:	f800283a 	ret

000227ec <main>:


int main()
{
   227ec:	defff004 	addi	sp,sp,-64
   227f0:	dfc00f15 	stw	ra,60(sp)
   227f4:	df000e15 	stw	fp,56(sp)
   227f8:	dc000d15 	stw	r16,52(sp)
   227fc:	df000e04 	addi	fp,sp,56
	char buffer[16];
	uint32_t nguyen;
	uint32_t thapphan;
	I2C0_Init();
   22800:	00224cc0 	call	224cc <I2C0_Init>
	SH1106_Init (); // initialise the display
   22804:	0020a4c0 	call	20a4c <SH1106_Init>
	const char *DAYS_OF_WEEK[7] = { "Sunday", "Monday", "Tuesday", "Wednesday", "Thursday", "Friday", "Saturday" };
   22808:	008000f4 	movhi	r2,3
   2280c:	10be0c04 	addi	r2,r2,-2000
   22810:	e0bff815 	stw	r2,-32(fp)
   22814:	008000f4 	movhi	r2,3
   22818:	10be0e04 	addi	r2,r2,-1992
   2281c:	e0bff915 	stw	r2,-28(fp)
   22820:	008000f4 	movhi	r2,3
   22824:	10be1004 	addi	r2,r2,-1984
   22828:	e0bffa15 	stw	r2,-24(fp)
   2282c:	008000f4 	movhi	r2,3
   22830:	10be1204 	addi	r2,r2,-1976
   22834:	e0bffb15 	stw	r2,-20(fp)
   22838:	008000f4 	movhi	r2,3
   2283c:	10be1504 	addi	r2,r2,-1964
   22840:	e0bffc15 	stw	r2,-16(fp)
   22844:	008000f4 	movhi	r2,3
   22848:	10be1804 	addi	r2,r2,-1952
   2284c:	e0bffd15 	stw	r2,-12(fp)
   22850:	008000f4 	movhi	r2,3
   22854:	10be1a04 	addi	r2,r2,-1944
   22858:	e0bffe15 	stw	r2,-8(fp)
		/* Start DS1307 timing. Pass user I2C handle pointer to function. */
	DS1307_Init();
   2285c:	002024c0 	call	2024c <DS1307_Init>
		/* To test leap year correction. */
	DS1307_SetTimeZone(+8, 00);
   22860:	000b883a 	mov	r5,zero
   22864:	01000204 	movi	r4,8
   22868:	00209400 	call	20940 <DS1307_SetTimeZone>
	DS1307_SetDate(29);
   2286c:	01000744 	movi	r4,29
   22870:	00207300 	call	20730 <DS1307_SetDate>
	DS1307_SetMonth(2);
   22874:	01000084 	movi	r4,2
   22878:	002077c0 	call	2077c <DS1307_SetMonth>
	DS1307_SetYear(2024);
   2287c:	0101fa04 	movi	r4,2024
   22880:	00207c80 	call	207c8 <DS1307_SetYear>
	DS1307_SetDayOfWeek(4);
   22884:	01000104 	movi	r4,4
   22888:	00206e40 	call	206e4 <DS1307_SetDayOfWeek>
	DS1307_SetHour(23);
   2288c:	010005c4 	movi	r4,23
   22890:	00208440 	call	20844 <DS1307_SetHour>
	DS1307_SetMinute(59);
   22894:	01000ec4 	movi	r4,59
   22898:	00208940 	call	20894 <DS1307_SetMinute>
	DS1307_SetSecond(30);
   2289c:	01000784 	movi	r4,30
   228a0:	00208e00 	call	208e0 <DS1307_SetSecond>
	  while (1)
	  {
		  usleep(5000000);
   228a4:	01001334 	movhi	r4,76
   228a8:	2112d004 	addi	r4,r4,19264
   228ac:	0026b6c0 	call	26b6c <usleep>
		  AHT20_Read();
   228b0:	00225240 	call	22524 <AHT20_Read>
		  printf("\nTemp: %d, Humid: %d", (int)Temp, (int)Humid);
   228b4:	d0a0df17 	ldw	r2,-31876(gp)
   228b8:	1009883a 	mov	r4,r2
   228bc:	0023a680 	call	23a68 <__fixsfsi>
   228c0:	1021883a 	mov	r16,r2
   228c4:	d0a0e017 	ldw	r2,-31872(gp)
   228c8:	1009883a 	mov	r4,r2
   228cc:	0023a680 	call	23a68 <__fixsfsi>
   228d0:	100d883a 	mov	r6,r2
   228d4:	800b883a 	mov	r5,r16
   228d8:	010000f4 	movhi	r4,3
   228dc:	213e1d04 	addi	r4,r4,-1932
   228e0:	0025aac0 	call	25aac <printf>

		  Temp = Temp * 100;
   228e4:	d0a0df17 	ldw	r2,-31876(gp)
   228e8:	0150b234 	movhi	r5,17096
   228ec:	1009883a 	mov	r4,r2
   228f0:	00231540 	call	23154 <__mulsf3>
   228f4:	1007883a 	mov	r3,r2
   228f8:	1805883a 	mov	r2,r3
   228fc:	d0a0df15 	stw	r2,-31876(gp)
		  nguyen = Temp / 100;
   22900:	d0a0df17 	ldw	r2,-31876(gp)
   22904:	0150b234 	movhi	r5,17096
   22908:	1009883a 	mov	r4,r2
   2290c:	0022c580 	call	22c58 <__divsf3>
   22910:	1007883a 	mov	r3,r2
   22914:	1805883a 	mov	r2,r3
   22918:	1009883a 	mov	r4,r2
   2291c:	0022a1c0 	call	22a1c <__fixunssfsi>
   22920:	e0bff215 	stw	r2,-56(fp)
		  thapphan = (uint32_t)Temp % 100;
   22924:	d0a0df17 	ldw	r2,-31876(gp)
   22928:	1009883a 	mov	r4,r2
   2292c:	0022a1c0 	call	22a1c <__fixunssfsi>
   22930:	01401904 	movi	r5,100
   22934:	1009883a 	mov	r4,r2
   22938:	0022bd80 	call	22bd8 <__umodsi3>
   2293c:	e0bff315 	stw	r2,-52(fp)
		  sprintf(buffer, "Temp: %d.%02d", nguyen, thapphan);
   22940:	e0bff404 	addi	r2,fp,-48
   22944:	e1fff317 	ldw	r7,-52(fp)
   22948:	e1bff217 	ldw	r6,-56(fp)
   2294c:	014000f4 	movhi	r5,3
   22950:	297e2304 	addi	r5,r5,-1908
   22954:	1009883a 	mov	r4,r2
   22958:	0025bf00 	call	25bf0 <sprintf>
		  SH1106_GotoXY(12, 0);
   2295c:	000b883a 	mov	r5,zero
   22960:	01000304 	movi	r4,12
   22964:	0020ee00 	call	20ee0 <SH1106_GotoXY>
		  SH1106_Puts(buffer, &Font_7x10, 1);
   22968:	e0bff404 	addi	r2,fp,-48
   2296c:	01800044 	movi	r6,1
   22970:	d1600004 	addi	r5,gp,-32768
   22974:	1009883a 	mov	r4,r2
   22978:	00210dc0 	call	210dc <SH1106_Puts>

		  Humid = Humid * 100;
   2297c:	d0a0e017 	ldw	r2,-31872(gp)
   22980:	0150b234 	movhi	r5,17096
   22984:	1009883a 	mov	r4,r2
   22988:	00231540 	call	23154 <__mulsf3>
   2298c:	1007883a 	mov	r3,r2
   22990:	1805883a 	mov	r2,r3
   22994:	d0a0e015 	stw	r2,-31872(gp)
		  nguyen = Humid / 100;
   22998:	d0a0e017 	ldw	r2,-31872(gp)
   2299c:	0150b234 	movhi	r5,17096
   229a0:	1009883a 	mov	r4,r2
   229a4:	0022c580 	call	22c58 <__divsf3>
   229a8:	1007883a 	mov	r3,r2
   229ac:	1805883a 	mov	r2,r3
   229b0:	1009883a 	mov	r4,r2
   229b4:	0022a1c0 	call	22a1c <__fixunssfsi>
   229b8:	e0bff215 	stw	r2,-56(fp)
		  thapphan = (uint32_t)Humid % 100;
   229bc:	d0a0e017 	ldw	r2,-31872(gp)
   229c0:	1009883a 	mov	r4,r2
   229c4:	0022a1c0 	call	22a1c <__fixunssfsi>
   229c8:	01401904 	movi	r5,100
   229cc:	1009883a 	mov	r4,r2
   229d0:	0022bd80 	call	22bd8 <__umodsi3>
   229d4:	e0bff315 	stw	r2,-52(fp)
		  sprintf(buffer, "Humidity: %d.%02d", nguyen, thapphan);
   229d8:	e0bff404 	addi	r2,fp,-48
   229dc:	e1fff317 	ldw	r7,-52(fp)
   229e0:	e1bff217 	ldw	r6,-56(fp)
   229e4:	014000f4 	movhi	r5,3
   229e8:	297e2704 	addi	r5,r5,-1892
   229ec:	1009883a 	mov	r4,r2
   229f0:	0025bf00 	call	25bf0 <sprintf>
		  SH1106_GotoXY(12, 15);
   229f4:	014003c4 	movi	r5,15
   229f8:	01000304 	movi	r4,12
   229fc:	0020ee00 	call	20ee0 <SH1106_GotoXY>
		  SH1106_Puts(buffer, &Font_7x10, 1);
   22a00:	e0bff404 	addi	r2,fp,-48
   22a04:	01800044 	movi	r6,1
   22a08:	d1600004 	addi	r5,gp,-32768
   22a0c:	1009883a 	mov	r4,r2
   22a10:	00210dc0 	call	210dc <SH1106_Puts>
		  SH1106_UpdateScreen();
   22a14:	0020c100 	call	20c10 <SH1106_UpdateScreen>
	  }
   22a18:	003fa206 	br	228a4 <__alt_data_end+0xfffe28a4>

00022a1c <__fixunssfsi>:
   22a1c:	defffd04 	addi	sp,sp,-12
   22a20:	dc000015 	stw	r16,0(sp)
   22a24:	0413c034 	movhi	r16,20224
   22a28:	800b883a 	mov	r5,r16
   22a2c:	dc400115 	stw	r17,4(sp)
   22a30:	dfc00215 	stw	ra,8(sp)
   22a34:	2023883a 	mov	r17,r4
   22a38:	00230980 	call	23098 <__gesf2>
   22a3c:	1000070e 	bge	r2,zero,22a5c <__fixunssfsi+0x40>
   22a40:	8809883a 	mov	r4,r17
   22a44:	0023a680 	call	23a68 <__fixsfsi>
   22a48:	dfc00217 	ldw	ra,8(sp)
   22a4c:	dc400117 	ldw	r17,4(sp)
   22a50:	dc000017 	ldw	r16,0(sp)
   22a54:	dec00304 	addi	sp,sp,12
   22a58:	f800283a 	ret
   22a5c:	800b883a 	mov	r5,r16
   22a60:	8809883a 	mov	r4,r17
   22a64:	00235840 	call	23584 <__subsf3>
   22a68:	1009883a 	mov	r4,r2
   22a6c:	0023a680 	call	23a68 <__fixsfsi>
   22a70:	00e00034 	movhi	r3,32768
   22a74:	10c5883a 	add	r2,r2,r3
   22a78:	003ff306 	br	22a48 <__alt_data_end+0xfffe2a48>

00022a7c <__divsi3>:
   22a7c:	20001b16 	blt	r4,zero,22aec <__divsi3+0x70>
   22a80:	000f883a 	mov	r7,zero
   22a84:	28001616 	blt	r5,zero,22ae0 <__divsi3+0x64>
   22a88:	200d883a 	mov	r6,r4
   22a8c:	29001a2e 	bgeu	r5,r4,22af8 <__divsi3+0x7c>
   22a90:	00800804 	movi	r2,32
   22a94:	00c00044 	movi	r3,1
   22a98:	00000106 	br	22aa0 <__divsi3+0x24>
   22a9c:	10000d26 	beq	r2,zero,22ad4 <__divsi3+0x58>
   22aa0:	294b883a 	add	r5,r5,r5
   22aa4:	10bfffc4 	addi	r2,r2,-1
   22aa8:	18c7883a 	add	r3,r3,r3
   22aac:	293ffb36 	bltu	r5,r4,22a9c <__alt_data_end+0xfffe2a9c>
   22ab0:	0005883a 	mov	r2,zero
   22ab4:	18000726 	beq	r3,zero,22ad4 <__divsi3+0x58>
   22ab8:	0005883a 	mov	r2,zero
   22abc:	31400236 	bltu	r6,r5,22ac8 <__divsi3+0x4c>
   22ac0:	314dc83a 	sub	r6,r6,r5
   22ac4:	10c4b03a 	or	r2,r2,r3
   22ac8:	1806d07a 	srli	r3,r3,1
   22acc:	280ad07a 	srli	r5,r5,1
   22ad0:	183ffa1e 	bne	r3,zero,22abc <__alt_data_end+0xfffe2abc>
   22ad4:	38000126 	beq	r7,zero,22adc <__divsi3+0x60>
   22ad8:	0085c83a 	sub	r2,zero,r2
   22adc:	f800283a 	ret
   22ae0:	014bc83a 	sub	r5,zero,r5
   22ae4:	39c0005c 	xori	r7,r7,1
   22ae8:	003fe706 	br	22a88 <__alt_data_end+0xfffe2a88>
   22aec:	0109c83a 	sub	r4,zero,r4
   22af0:	01c00044 	movi	r7,1
   22af4:	003fe306 	br	22a84 <__alt_data_end+0xfffe2a84>
   22af8:	00c00044 	movi	r3,1
   22afc:	003fee06 	br	22ab8 <__alt_data_end+0xfffe2ab8>

00022b00 <__modsi3>:
   22b00:	20001716 	blt	r4,zero,22b60 <__modsi3+0x60>
   22b04:	000f883a 	mov	r7,zero
   22b08:	2005883a 	mov	r2,r4
   22b0c:	28001216 	blt	r5,zero,22b58 <__modsi3+0x58>
   22b10:	2900162e 	bgeu	r5,r4,22b6c <__modsi3+0x6c>
   22b14:	01800804 	movi	r6,32
   22b18:	00c00044 	movi	r3,1
   22b1c:	00000106 	br	22b24 <__modsi3+0x24>
   22b20:	30000a26 	beq	r6,zero,22b4c <__modsi3+0x4c>
   22b24:	294b883a 	add	r5,r5,r5
   22b28:	31bfffc4 	addi	r6,r6,-1
   22b2c:	18c7883a 	add	r3,r3,r3
   22b30:	293ffb36 	bltu	r5,r4,22b20 <__alt_data_end+0xfffe2b20>
   22b34:	18000526 	beq	r3,zero,22b4c <__modsi3+0x4c>
   22b38:	1806d07a 	srli	r3,r3,1
   22b3c:	11400136 	bltu	r2,r5,22b44 <__modsi3+0x44>
   22b40:	1145c83a 	sub	r2,r2,r5
   22b44:	280ad07a 	srli	r5,r5,1
   22b48:	183ffb1e 	bne	r3,zero,22b38 <__alt_data_end+0xfffe2b38>
   22b4c:	38000126 	beq	r7,zero,22b54 <__modsi3+0x54>
   22b50:	0085c83a 	sub	r2,zero,r2
   22b54:	f800283a 	ret
   22b58:	014bc83a 	sub	r5,zero,r5
   22b5c:	003fec06 	br	22b10 <__alt_data_end+0xfffe2b10>
   22b60:	0109c83a 	sub	r4,zero,r4
   22b64:	01c00044 	movi	r7,1
   22b68:	003fe706 	br	22b08 <__alt_data_end+0xfffe2b08>
   22b6c:	00c00044 	movi	r3,1
   22b70:	003ff106 	br	22b38 <__alt_data_end+0xfffe2b38>

00022b74 <__udivsi3>:
   22b74:	200d883a 	mov	r6,r4
   22b78:	2900152e 	bgeu	r5,r4,22bd0 <__udivsi3+0x5c>
   22b7c:	28001416 	blt	r5,zero,22bd0 <__udivsi3+0x5c>
   22b80:	00800804 	movi	r2,32
   22b84:	00c00044 	movi	r3,1
   22b88:	00000206 	br	22b94 <__udivsi3+0x20>
   22b8c:	10000e26 	beq	r2,zero,22bc8 <__udivsi3+0x54>
   22b90:	28000516 	blt	r5,zero,22ba8 <__udivsi3+0x34>
   22b94:	294b883a 	add	r5,r5,r5
   22b98:	10bfffc4 	addi	r2,r2,-1
   22b9c:	18c7883a 	add	r3,r3,r3
   22ba0:	293ffa36 	bltu	r5,r4,22b8c <__alt_data_end+0xfffe2b8c>
   22ba4:	18000826 	beq	r3,zero,22bc8 <__udivsi3+0x54>
   22ba8:	0005883a 	mov	r2,zero
   22bac:	31400236 	bltu	r6,r5,22bb8 <__udivsi3+0x44>
   22bb0:	314dc83a 	sub	r6,r6,r5
   22bb4:	10c4b03a 	or	r2,r2,r3
   22bb8:	1806d07a 	srli	r3,r3,1
   22bbc:	280ad07a 	srli	r5,r5,1
   22bc0:	183ffa1e 	bne	r3,zero,22bac <__alt_data_end+0xfffe2bac>
   22bc4:	f800283a 	ret
   22bc8:	0005883a 	mov	r2,zero
   22bcc:	f800283a 	ret
   22bd0:	00c00044 	movi	r3,1
   22bd4:	003ff406 	br	22ba8 <__alt_data_end+0xfffe2ba8>

00022bd8 <__umodsi3>:
   22bd8:	2005883a 	mov	r2,r4
   22bdc:	2900122e 	bgeu	r5,r4,22c28 <__umodsi3+0x50>
   22be0:	28001116 	blt	r5,zero,22c28 <__umodsi3+0x50>
   22be4:	01800804 	movi	r6,32
   22be8:	00c00044 	movi	r3,1
   22bec:	00000206 	br	22bf8 <__umodsi3+0x20>
   22bf0:	30000c26 	beq	r6,zero,22c24 <__umodsi3+0x4c>
   22bf4:	28000516 	blt	r5,zero,22c0c <__umodsi3+0x34>
   22bf8:	294b883a 	add	r5,r5,r5
   22bfc:	31bfffc4 	addi	r6,r6,-1
   22c00:	18c7883a 	add	r3,r3,r3
   22c04:	293ffa36 	bltu	r5,r4,22bf0 <__alt_data_end+0xfffe2bf0>
   22c08:	18000626 	beq	r3,zero,22c24 <__umodsi3+0x4c>
   22c0c:	1806d07a 	srli	r3,r3,1
   22c10:	11400136 	bltu	r2,r5,22c18 <__umodsi3+0x40>
   22c14:	1145c83a 	sub	r2,r2,r5
   22c18:	280ad07a 	srli	r5,r5,1
   22c1c:	183ffb1e 	bne	r3,zero,22c0c <__alt_data_end+0xfffe2c0c>
   22c20:	f800283a 	ret
   22c24:	f800283a 	ret
   22c28:	00c00044 	movi	r3,1
   22c2c:	003ff706 	br	22c0c <__alt_data_end+0xfffe2c0c>

00022c30 <__mulsi3>:
   22c30:	0005883a 	mov	r2,zero
   22c34:	20000726 	beq	r4,zero,22c54 <__mulsi3+0x24>
   22c38:	20c0004c 	andi	r3,r4,1
   22c3c:	2008d07a 	srli	r4,r4,1
   22c40:	18000126 	beq	r3,zero,22c48 <__mulsi3+0x18>
   22c44:	1145883a 	add	r2,r2,r5
   22c48:	294b883a 	add	r5,r5,r5
   22c4c:	203ffa1e 	bne	r4,zero,22c38 <__alt_data_end+0xfffe2c38>
   22c50:	f800283a 	ret
   22c54:	f800283a 	ret

00022c58 <__divsf3>:
   22c58:	defff504 	addi	sp,sp,-44
   22c5c:	200cd5fa 	srli	r6,r4,23
   22c60:	dcc00415 	stw	r19,16(sp)
   22c64:	2026d7fa 	srli	r19,r4,31
   22c68:	00c02034 	movhi	r3,128
   22c6c:	dd800715 	stw	r22,28(sp)
   22c70:	dd000515 	stw	r20,20(sp)
   22c74:	dc800315 	stw	r18,12(sp)
   22c78:	18ffffc4 	addi	r3,r3,-1
   22c7c:	dfc00a15 	stw	ra,40(sp)
   22c80:	df000915 	stw	fp,36(sp)
   22c84:	ddc00815 	stw	r23,32(sp)
   22c88:	dd400615 	stw	r21,24(sp)
   22c8c:	dc400215 	stw	r17,8(sp)
   22c90:	dc000115 	stw	r16,4(sp)
   22c94:	35003fcc 	andi	r20,r6,255
   22c98:	1924703a 	and	r18,r3,r4
   22c9c:	9d803fcc 	andi	r22,r19,255
   22ca0:	a0005226 	beq	r20,zero,22dec <__divsf3+0x194>
   22ca4:	00803fc4 	movi	r2,255
   22ca8:	a0802e26 	beq	r20,r2,22d64 <__divsf3+0x10c>
   22cac:	91002034 	orhi	r4,r18,128
   22cb0:	202490fa 	slli	r18,r4,3
   22cb4:	a53fe044 	addi	r20,r20,-127
   22cb8:	0021883a 	mov	r16,zero
   22cbc:	002f883a 	mov	r23,zero
   22cc0:	280cd5fa 	srli	r6,r5,23
   22cc4:	282ad7fa 	srli	r21,r5,31
   22cc8:	00c02034 	movhi	r3,128
   22ccc:	18ffffc4 	addi	r3,r3,-1
   22cd0:	31803fcc 	andi	r6,r6,255
   22cd4:	1962703a 	and	r17,r3,r5
   22cd8:	af003fcc 	andi	fp,r21,255
   22cdc:	30004a26 	beq	r6,zero,22e08 <__divsf3+0x1b0>
   22ce0:	00803fc4 	movi	r2,255
   22ce4:	30804526 	beq	r6,r2,22dfc <__divsf3+0x1a4>
   22ce8:	89402034 	orhi	r5,r17,128
   22cec:	282290fa 	slli	r17,r5,3
   22cf0:	31bfe044 	addi	r6,r6,-127
   22cf4:	000b883a 	mov	r5,zero
   22cf8:	2c20b03a 	or	r16,r5,r16
   22cfc:	802090ba 	slli	r16,r16,2
   22d00:	008000b4 	movhi	r2,2
   22d04:	108b4904 	addi	r2,r2,11556
   22d08:	80a1883a 	add	r16,r16,r2
   22d0c:	81000017 	ldw	r4,0(r16)
   22d10:	9d46f03a 	xor	r3,r19,r21
   22d14:	180f883a 	mov	r7,r3
   22d18:	18803fcc 	andi	r2,r3,255
   22d1c:	a18dc83a 	sub	r6,r20,r6
   22d20:	2000683a 	jmp	r4
   22d24:	00022f08 	cmpgei	zero,zero,2236
   22d28:	00022d8c 	andi	zero,zero,2230
   22d2c:	00022efc 	xorhi	zero,zero,2235
   22d30:	00022d78 	rdprs	zero,zero,2229
   22d34:	00022efc 	xorhi	zero,zero,2235
   22d38:	00022ed4 	movui	zero,2235
   22d3c:	00022efc 	xorhi	zero,zero,2235
   22d40:	00022d78 	rdprs	zero,zero,2229
   22d44:	00022d8c 	andi	zero,zero,2230
   22d48:	00022d8c 	andi	zero,zero,2230
   22d4c:	00022ed4 	movui	zero,2235
   22d50:	00022d78 	rdprs	zero,zero,2229
   22d54:	00022fe8 	cmpgeui	zero,zero,2239
   22d58:	00022fe8 	cmpgeui	zero,zero,2239
   22d5c:	00022fe8 	cmpgeui	zero,zero,2239
   22d60:	00022f9c 	xori	zero,zero,2238
   22d64:	9000581e 	bne	r18,zero,22ec8 <__divsf3+0x270>
   22d68:	04000204 	movi	r16,8
   22d6c:	05c00084 	movi	r23,2
   22d70:	003fd306 	br	22cc0 <__alt_data_end+0xfffe2cc0>
   22d74:	0023883a 	mov	r17,zero
   22d78:	e02d883a 	mov	r22,fp
   22d7c:	282f883a 	mov	r23,r5
   22d80:	00800084 	movi	r2,2
   22d84:	b8808f1e 	bne	r23,r2,22fc4 <__divsf3+0x36c>
   22d88:	b005883a 	mov	r2,r22
   22d8c:	11c0004c 	andi	r7,r2,1
   22d90:	013fffc4 	movi	r4,-1
   22d94:	000d883a 	mov	r6,zero
   22d98:	21003fcc 	andi	r4,r4,255
   22d9c:	200895fa 	slli	r4,r4,23
   22da0:	38803fcc 	andi	r2,r7,255
   22da4:	00c02034 	movhi	r3,128
   22da8:	100497fa 	slli	r2,r2,31
   22dac:	18ffffc4 	addi	r3,r3,-1
   22db0:	30c6703a 	and	r3,r6,r3
   22db4:	1906b03a 	or	r3,r3,r4
   22db8:	1884b03a 	or	r2,r3,r2
   22dbc:	dfc00a17 	ldw	ra,40(sp)
   22dc0:	df000917 	ldw	fp,36(sp)
   22dc4:	ddc00817 	ldw	r23,32(sp)
   22dc8:	dd800717 	ldw	r22,28(sp)
   22dcc:	dd400617 	ldw	r21,24(sp)
   22dd0:	dd000517 	ldw	r20,20(sp)
   22dd4:	dcc00417 	ldw	r19,16(sp)
   22dd8:	dc800317 	ldw	r18,12(sp)
   22ddc:	dc400217 	ldw	r17,8(sp)
   22de0:	dc000117 	ldw	r16,4(sp)
   22de4:	dec00b04 	addi	sp,sp,44
   22de8:	f800283a 	ret
   22dec:	90002b1e 	bne	r18,zero,22e9c <__divsf3+0x244>
   22df0:	04000104 	movi	r16,4
   22df4:	05c00044 	movi	r23,1
   22df8:	003fb106 	br	22cc0 <__alt_data_end+0xfffe2cc0>
   22dfc:	8800251e 	bne	r17,zero,22e94 <__divsf3+0x23c>
   22e00:	01400084 	movi	r5,2
   22e04:	00000206 	br	22e10 <__divsf3+0x1b8>
   22e08:	88001a1e 	bne	r17,zero,22e74 <__divsf3+0x21c>
   22e0c:	01400044 	movi	r5,1
   22e10:	8160b03a 	or	r16,r16,r5
   22e14:	802090ba 	slli	r16,r16,2
   22e18:	00c000b4 	movhi	r3,2
   22e1c:	18cb8d04 	addi	r3,r3,11828
   22e20:	80e1883a 	add	r16,r16,r3
   22e24:	80c00017 	ldw	r3,0(r16)
   22e28:	9d44f03a 	xor	r2,r19,r21
   22e2c:	a18dc83a 	sub	r6,r20,r6
   22e30:	1800683a 	jmp	r3
   22e34:	00022d8c 	andi	zero,zero,2230
   22e38:	00022d8c 	andi	zero,zero,2230
   22e3c:	00022fd8 	cmpnei	zero,zero,2239
   22e40:	00022d74 	movhi	zero,2229
   22e44:	00022fd8 	cmpnei	zero,zero,2239
   22e48:	00022ed4 	movui	zero,2235
   22e4c:	00022fd8 	cmpnei	zero,zero,2239
   22e50:	00022d74 	movhi	zero,2229
   22e54:	00022d8c 	andi	zero,zero,2230
   22e58:	00022d8c 	andi	zero,zero,2230
   22e5c:	00022ed4 	movui	zero,2235
   22e60:	00022d74 	movhi	zero,2229
   22e64:	00022fe8 	cmpgeui	zero,zero,2239
   22e68:	00022fe8 	cmpgeui	zero,zero,2239
   22e6c:	00022fe8 	cmpgeui	zero,zero,2239
   22e70:	00023000 	call	2300 <__alt_mem_onchip_memory2_0-0x1dd00>
   22e74:	8809883a 	mov	r4,r17
   22e78:	00259ec0 	call	259ec <__clzsi2>
   22e7c:	10fffec4 	addi	r3,r2,-5
   22e80:	10801d84 	addi	r2,r2,118
   22e84:	88e2983a 	sll	r17,r17,r3
   22e88:	008dc83a 	sub	r6,zero,r2
   22e8c:	000b883a 	mov	r5,zero
   22e90:	003f9906 	br	22cf8 <__alt_data_end+0xfffe2cf8>
   22e94:	014000c4 	movi	r5,3
   22e98:	003f9706 	br	22cf8 <__alt_data_end+0xfffe2cf8>
   22e9c:	9009883a 	mov	r4,r18
   22ea0:	d9400015 	stw	r5,0(sp)
   22ea4:	00259ec0 	call	259ec <__clzsi2>
   22ea8:	10fffec4 	addi	r3,r2,-5
   22eac:	11801d84 	addi	r6,r2,118
   22eb0:	90e4983a 	sll	r18,r18,r3
   22eb4:	01a9c83a 	sub	r20,zero,r6
   22eb8:	0021883a 	mov	r16,zero
   22ebc:	002f883a 	mov	r23,zero
   22ec0:	d9400017 	ldw	r5,0(sp)
   22ec4:	003f7e06 	br	22cc0 <__alt_data_end+0xfffe2cc0>
   22ec8:	04000304 	movi	r16,12
   22ecc:	05c000c4 	movi	r23,3
   22ed0:	003f7b06 	br	22cc0 <__alt_data_end+0xfffe2cc0>
   22ed4:	01802034 	movhi	r6,128
   22ed8:	000f883a 	mov	r7,zero
   22edc:	31bfffc4 	addi	r6,r6,-1
   22ee0:	013fffc4 	movi	r4,-1
   22ee4:	003fac06 	br	22d98 <__alt_data_end+0xfffe2d98>
   22ee8:	01400044 	movi	r5,1
   22eec:	2909c83a 	sub	r4,r5,r4
   22ef0:	00c006c4 	movi	r3,27
   22ef4:	19004b0e 	bge	r3,r4,23024 <__divsf3+0x3cc>
   22ef8:	114e703a 	and	r7,r2,r5
   22efc:	0009883a 	mov	r4,zero
   22f00:	000d883a 	mov	r6,zero
   22f04:	003fa406 	br	22d98 <__alt_data_end+0xfffe2d98>
   22f08:	9006917a 	slli	r3,r18,5
   22f0c:	8822917a 	slli	r17,r17,5
   22f10:	1c40372e 	bgeu	r3,r17,22ff0 <__divsf3+0x398>
   22f14:	31bfffc4 	addi	r6,r6,-1
   22f18:	010006c4 	movi	r4,27
   22f1c:	000b883a 	mov	r5,zero
   22f20:	180f883a 	mov	r7,r3
   22f24:	294b883a 	add	r5,r5,r5
   22f28:	18c7883a 	add	r3,r3,r3
   22f2c:	38000116 	blt	r7,zero,22f34 <__divsf3+0x2dc>
   22f30:	1c400236 	bltu	r3,r17,22f3c <__divsf3+0x2e4>
   22f34:	1c47c83a 	sub	r3,r3,r17
   22f38:	29400054 	ori	r5,r5,1
   22f3c:	213fffc4 	addi	r4,r4,-1
   22f40:	203ff71e 	bne	r4,zero,22f20 <__alt_data_end+0xfffe2f20>
   22f44:	1806c03a 	cmpne	r3,r3,zero
   22f48:	1962b03a 	or	r17,r3,r5
   22f4c:	31001fc4 	addi	r4,r6,127
   22f50:	013fe50e 	bge	zero,r4,22ee8 <__alt_data_end+0xfffe2ee8>
   22f54:	88c001cc 	andi	r3,r17,7
   22f58:	18000426 	beq	r3,zero,22f6c <__divsf3+0x314>
   22f5c:	88c003cc 	andi	r3,r17,15
   22f60:	01400104 	movi	r5,4
   22f64:	19400126 	beq	r3,r5,22f6c <__divsf3+0x314>
   22f68:	8963883a 	add	r17,r17,r5
   22f6c:	88c2002c 	andhi	r3,r17,2048
   22f70:	18000426 	beq	r3,zero,22f84 <__divsf3+0x32c>
   22f74:	00fe0034 	movhi	r3,63488
   22f78:	18ffffc4 	addi	r3,r3,-1
   22f7c:	31002004 	addi	r4,r6,128
   22f80:	88e2703a 	and	r17,r17,r3
   22f84:	00c03f84 	movi	r3,254
   22f88:	193f8016 	blt	r3,r4,22d8c <__alt_data_end+0xfffe2d8c>
   22f8c:	880c91ba 	slli	r6,r17,6
   22f90:	11c0004c 	andi	r7,r2,1
   22f94:	300cd27a 	srli	r6,r6,9
   22f98:	003f7f06 	br	22d98 <__alt_data_end+0xfffe2d98>
   22f9c:	9080102c 	andhi	r2,r18,64
   22fa0:	10000226 	beq	r2,zero,22fac <__divsf3+0x354>
   22fa4:	8880102c 	andhi	r2,r17,64
   22fa8:	10001826 	beq	r2,zero,2300c <__divsf3+0x3b4>
   22fac:	00802034 	movhi	r2,128
   22fb0:	91801034 	orhi	r6,r18,64
   22fb4:	10bfffc4 	addi	r2,r2,-1
   22fb8:	980f883a 	mov	r7,r19
   22fbc:	308c703a 	and	r6,r6,r2
   22fc0:	003fc706 	br	22ee0 <__alt_data_end+0xfffe2ee0>
   22fc4:	008000c4 	movi	r2,3
   22fc8:	b8802d26 	beq	r23,r2,23080 <__divsf3+0x428>
   22fcc:	00c00044 	movi	r3,1
   22fd0:	b005883a 	mov	r2,r22
   22fd4:	b8ffdd1e 	bne	r23,r3,22f4c <__alt_data_end+0xfffe2f4c>
   22fd8:	11c0004c 	andi	r7,r2,1
   22fdc:	0009883a 	mov	r4,zero
   22fe0:	000d883a 	mov	r6,zero
   22fe4:	003f6c06 	br	22d98 <__alt_data_end+0xfffe2d98>
   22fe8:	9023883a 	mov	r17,r18
   22fec:	003f6406 	br	22d80 <__alt_data_end+0xfffe2d80>
   22ff0:	1c47c83a 	sub	r3,r3,r17
   22ff4:	01000684 	movi	r4,26
   22ff8:	01400044 	movi	r5,1
   22ffc:	003fc806 	br	22f20 <__alt_data_end+0xfffe2f20>
   23000:	9080102c 	andhi	r2,r18,64
   23004:	103fe926 	beq	r2,zero,22fac <__alt_data_end+0xfffe2fac>
   23008:	0023883a 	mov	r17,zero
   2300c:	00802034 	movhi	r2,128
   23010:	89801034 	orhi	r6,r17,64
   23014:	10bfffc4 	addi	r2,r2,-1
   23018:	a80f883a 	mov	r7,r21
   2301c:	308c703a 	and	r6,r6,r2
   23020:	003faf06 	br	22ee0 <__alt_data_end+0xfffe2ee0>
   23024:	01c00804 	movi	r7,32
   23028:	390fc83a 	sub	r7,r7,r4
   2302c:	89ce983a 	sll	r7,r17,r7
   23030:	890ad83a 	srl	r5,r17,r4
   23034:	380ec03a 	cmpne	r7,r7,zero
   23038:	29cab03a 	or	r5,r5,r7
   2303c:	28c001cc 	andi	r3,r5,7
   23040:	18000426 	beq	r3,zero,23054 <__divsf3+0x3fc>
   23044:	28c003cc 	andi	r3,r5,15
   23048:	01000104 	movi	r4,4
   2304c:	19000126 	beq	r3,r4,23054 <__divsf3+0x3fc>
   23050:	290b883a 	add	r5,r5,r4
   23054:	28c1002c 	andhi	r3,r5,1024
   23058:	18000426 	beq	r3,zero,2306c <__divsf3+0x414>
   2305c:	11c0004c 	andi	r7,r2,1
   23060:	01000044 	movi	r4,1
   23064:	000d883a 	mov	r6,zero
   23068:	003f4b06 	br	22d98 <__alt_data_end+0xfffe2d98>
   2306c:	280a91ba 	slli	r5,r5,6
   23070:	11c0004c 	andi	r7,r2,1
   23074:	0009883a 	mov	r4,zero
   23078:	280cd27a 	srli	r6,r5,9
   2307c:	003f4606 	br	22d98 <__alt_data_end+0xfffe2d98>
   23080:	00802034 	movhi	r2,128
   23084:	89801034 	orhi	r6,r17,64
   23088:	10bfffc4 	addi	r2,r2,-1
   2308c:	b00f883a 	mov	r7,r22
   23090:	308c703a 	and	r6,r6,r2
   23094:	003f9206 	br	22ee0 <__alt_data_end+0xfffe2ee0>

00023098 <__gesf2>:
   23098:	2004d5fa 	srli	r2,r4,23
   2309c:	2806d5fa 	srli	r3,r5,23
   230a0:	01802034 	movhi	r6,128
   230a4:	31bfffc4 	addi	r6,r6,-1
   230a8:	10803fcc 	andi	r2,r2,255
   230ac:	01c03fc4 	movi	r7,255
   230b0:	3110703a 	and	r8,r6,r4
   230b4:	18c03fcc 	andi	r3,r3,255
   230b8:	314c703a 	and	r6,r6,r5
   230bc:	2008d7fa 	srli	r4,r4,31
   230c0:	280ad7fa 	srli	r5,r5,31
   230c4:	11c01926 	beq	r2,r7,2312c <__gesf2+0x94>
   230c8:	01c03fc4 	movi	r7,255
   230cc:	19c00f26 	beq	r3,r7,2310c <__gesf2+0x74>
   230d0:	1000061e 	bne	r2,zero,230ec <__gesf2+0x54>
   230d4:	400f003a 	cmpeq	r7,r8,zero
   230d8:	1800071e 	bne	r3,zero,230f8 <__gesf2+0x60>
   230dc:	3000061e 	bne	r6,zero,230f8 <__gesf2+0x60>
   230e0:	0005883a 	mov	r2,zero
   230e4:	40000e1e 	bne	r8,zero,23120 <__gesf2+0x88>
   230e8:	f800283a 	ret
   230ec:	18000a1e 	bne	r3,zero,23118 <__gesf2+0x80>
   230f0:	30000b26 	beq	r6,zero,23120 <__gesf2+0x88>
   230f4:	000f883a 	mov	r7,zero
   230f8:	29403fcc 	andi	r5,r5,255
   230fc:	38000726 	beq	r7,zero,2311c <__gesf2+0x84>
   23100:	28000826 	beq	r5,zero,23124 <__gesf2+0x8c>
   23104:	00800044 	movi	r2,1
   23108:	f800283a 	ret
   2310c:	303ff026 	beq	r6,zero,230d0 <__alt_data_end+0xfffe30d0>
   23110:	00bfff84 	movi	r2,-2
   23114:	f800283a 	ret
   23118:	29403fcc 	andi	r5,r5,255
   2311c:	21400526 	beq	r4,r5,23134 <__gesf2+0x9c>
   23120:	203ff826 	beq	r4,zero,23104 <__alt_data_end+0xfffe3104>
   23124:	00bfffc4 	movi	r2,-1
   23128:	f800283a 	ret
   2312c:	403fe626 	beq	r8,zero,230c8 <__alt_data_end+0xfffe30c8>
   23130:	003ff706 	br	23110 <__alt_data_end+0xfffe3110>
   23134:	18bffa16 	blt	r3,r2,23120 <__alt_data_end+0xfffe3120>
   23138:	10c00216 	blt	r2,r3,23144 <__gesf2+0xac>
   2313c:	323ff836 	bltu	r6,r8,23120 <__alt_data_end+0xfffe3120>
   23140:	4180022e 	bgeu	r8,r6,2314c <__gesf2+0xb4>
   23144:	203fef1e 	bne	r4,zero,23104 <__alt_data_end+0xfffe3104>
   23148:	003ff606 	br	23124 <__alt_data_end+0xfffe3124>
   2314c:	0005883a 	mov	r2,zero
   23150:	f800283a 	ret

00023154 <__mulsf3>:
   23154:	defff504 	addi	sp,sp,-44
   23158:	dc000115 	stw	r16,4(sp)
   2315c:	2020d5fa 	srli	r16,r4,23
   23160:	dd400615 	stw	r21,24(sp)
   23164:	202ad7fa 	srli	r21,r4,31
   23168:	dc800315 	stw	r18,12(sp)
   2316c:	04802034 	movhi	r18,128
   23170:	df000915 	stw	fp,36(sp)
   23174:	dd000515 	stw	r20,20(sp)
   23178:	94bfffc4 	addi	r18,r18,-1
   2317c:	dfc00a15 	stw	ra,40(sp)
   23180:	ddc00815 	stw	r23,32(sp)
   23184:	dd800715 	stw	r22,28(sp)
   23188:	dcc00415 	stw	r19,16(sp)
   2318c:	dc400215 	stw	r17,8(sp)
   23190:	84003fcc 	andi	r16,r16,255
   23194:	9124703a 	and	r18,r18,r4
   23198:	a829883a 	mov	r20,r21
   2319c:	af003fcc 	andi	fp,r21,255
   231a0:	80005426 	beq	r16,zero,232f4 <__mulsf3+0x1a0>
   231a4:	00803fc4 	movi	r2,255
   231a8:	80802f26 	beq	r16,r2,23268 <__mulsf3+0x114>
   231ac:	91002034 	orhi	r4,r18,128
   231b0:	202490fa 	slli	r18,r4,3
   231b4:	843fe044 	addi	r16,r16,-127
   231b8:	0023883a 	mov	r17,zero
   231bc:	002f883a 	mov	r23,zero
   231c0:	2804d5fa 	srli	r2,r5,23
   231c4:	282cd7fa 	srli	r22,r5,31
   231c8:	01002034 	movhi	r4,128
   231cc:	213fffc4 	addi	r4,r4,-1
   231d0:	10803fcc 	andi	r2,r2,255
   231d4:	2166703a 	and	r19,r4,r5
   231d8:	b1803fcc 	andi	r6,r22,255
   231dc:	10004c26 	beq	r2,zero,23310 <__mulsf3+0x1bc>
   231e0:	00c03fc4 	movi	r3,255
   231e4:	10c04726 	beq	r2,r3,23304 <__mulsf3+0x1b0>
   231e8:	99002034 	orhi	r4,r19,128
   231ec:	202690fa 	slli	r19,r4,3
   231f0:	10bfe044 	addi	r2,r2,-127
   231f4:	0007883a 	mov	r3,zero
   231f8:	80a1883a 	add	r16,r16,r2
   231fc:	010003c4 	movi	r4,15
   23200:	1c44b03a 	or	r2,r3,r17
   23204:	b56af03a 	xor	r21,r22,r21
   23208:	81c00044 	addi	r7,r16,1
   2320c:	20806b36 	bltu	r4,r2,233bc <__mulsf3+0x268>
   23210:	100490ba 	slli	r2,r2,2
   23214:	010000b4 	movhi	r4,2
   23218:	210c8a04 	addi	r4,r4,12840
   2321c:	1105883a 	add	r2,r2,r4
   23220:	10800017 	ldw	r2,0(r2)
   23224:	1000683a 	jmp	r2
   23228:	000233bc 	xorhi	zero,zero,2254
   2322c:	0002327c 	xorhi	zero,zero,2249
   23230:	0002327c 	xorhi	zero,zero,2249
   23234:	00023278 	rdprs	zero,zero,2249
   23238:	000233a0 	cmpeqi	zero,zero,2254
   2323c:	000233a0 	cmpeqi	zero,zero,2254
   23240:	0002338c 	andi	zero,zero,2254
   23244:	00023278 	rdprs	zero,zero,2249
   23248:	000233a0 	cmpeqi	zero,zero,2254
   2324c:	0002338c 	andi	zero,zero,2254
   23250:	000233a0 	cmpeqi	zero,zero,2254
   23254:	00023278 	rdprs	zero,zero,2249
   23258:	000233ac 	andhi	zero,zero,2254
   2325c:	000233ac 	andhi	zero,zero,2254
   23260:	000233ac 	andhi	zero,zero,2254
   23264:	000234bc 	xorhi	zero,zero,2258
   23268:	90003b1e 	bne	r18,zero,23358 <__mulsf3+0x204>
   2326c:	04400204 	movi	r17,8
   23270:	05c00084 	movi	r23,2
   23274:	003fd206 	br	231c0 <__alt_data_end+0xfffe31c0>
   23278:	302b883a 	mov	r21,r6
   2327c:	00800084 	movi	r2,2
   23280:	18802626 	beq	r3,r2,2331c <__mulsf3+0x1c8>
   23284:	008000c4 	movi	r2,3
   23288:	1880b826 	beq	r3,r2,2356c <__mulsf3+0x418>
   2328c:	00800044 	movi	r2,1
   23290:	1880af1e 	bne	r3,r2,23550 <__mulsf3+0x3fc>
   23294:	a829883a 	mov	r20,r21
   23298:	0007883a 	mov	r3,zero
   2329c:	0009883a 	mov	r4,zero
   232a0:	18803fcc 	andi	r2,r3,255
   232a4:	100695fa 	slli	r3,r2,23
   232a8:	a0803fcc 	andi	r2,r20,255
   232ac:	100a97fa 	slli	r5,r2,31
   232b0:	00802034 	movhi	r2,128
   232b4:	10bfffc4 	addi	r2,r2,-1
   232b8:	2084703a 	and	r2,r4,r2
   232bc:	10c4b03a 	or	r2,r2,r3
   232c0:	1144b03a 	or	r2,r2,r5
   232c4:	dfc00a17 	ldw	ra,40(sp)
   232c8:	df000917 	ldw	fp,36(sp)
   232cc:	ddc00817 	ldw	r23,32(sp)
   232d0:	dd800717 	ldw	r22,28(sp)
   232d4:	dd400617 	ldw	r21,24(sp)
   232d8:	dd000517 	ldw	r20,20(sp)
   232dc:	dcc00417 	ldw	r19,16(sp)
   232e0:	dc800317 	ldw	r18,12(sp)
   232e4:	dc400217 	ldw	r17,8(sp)
   232e8:	dc000117 	ldw	r16,4(sp)
   232ec:	dec00b04 	addi	sp,sp,44
   232f0:	f800283a 	ret
   232f4:	90000d1e 	bne	r18,zero,2332c <__mulsf3+0x1d8>
   232f8:	04400104 	movi	r17,4
   232fc:	05c00044 	movi	r23,1
   23300:	003faf06 	br	231c0 <__alt_data_end+0xfffe31c0>
   23304:	9806c03a 	cmpne	r3,r19,zero
   23308:	18c00084 	addi	r3,r3,2
   2330c:	003fba06 	br	231f8 <__alt_data_end+0xfffe31f8>
   23310:	9800141e 	bne	r19,zero,23364 <__mulsf3+0x210>
   23314:	00c00044 	movi	r3,1
   23318:	003fb706 	br	231f8 <__alt_data_end+0xfffe31f8>
   2331c:	a829883a 	mov	r20,r21
   23320:	00ffffc4 	movi	r3,-1
   23324:	0009883a 	mov	r4,zero
   23328:	003fdd06 	br	232a0 <__alt_data_end+0xfffe32a0>
   2332c:	9009883a 	mov	r4,r18
   23330:	d9400015 	stw	r5,0(sp)
   23334:	00259ec0 	call	259ec <__clzsi2>
   23338:	10fffec4 	addi	r3,r2,-5
   2333c:	10801d84 	addi	r2,r2,118
   23340:	90e4983a 	sll	r18,r18,r3
   23344:	00a1c83a 	sub	r16,zero,r2
   23348:	0023883a 	mov	r17,zero
   2334c:	002f883a 	mov	r23,zero
   23350:	d9400017 	ldw	r5,0(sp)
   23354:	003f9a06 	br	231c0 <__alt_data_end+0xfffe31c0>
   23358:	04400304 	movi	r17,12
   2335c:	05c000c4 	movi	r23,3
   23360:	003f9706 	br	231c0 <__alt_data_end+0xfffe31c0>
   23364:	9809883a 	mov	r4,r19
   23368:	d9800015 	stw	r6,0(sp)
   2336c:	00259ec0 	call	259ec <__clzsi2>
   23370:	10fffec4 	addi	r3,r2,-5
   23374:	10801d84 	addi	r2,r2,118
   23378:	98e6983a 	sll	r19,r19,r3
   2337c:	0085c83a 	sub	r2,zero,r2
   23380:	0007883a 	mov	r3,zero
   23384:	d9800017 	ldw	r6,0(sp)
   23388:	003f9b06 	br	231f8 <__alt_data_end+0xfffe31f8>
   2338c:	01002034 	movhi	r4,128
   23390:	0029883a 	mov	r20,zero
   23394:	213fffc4 	addi	r4,r4,-1
   23398:	00ffffc4 	movi	r3,-1
   2339c:	003fc006 	br	232a0 <__alt_data_end+0xfffe32a0>
   233a0:	9027883a 	mov	r19,r18
   233a4:	b807883a 	mov	r3,r23
   233a8:	003fb406 	br	2327c <__alt_data_end+0xfffe327c>
   233ac:	9027883a 	mov	r19,r18
   233b0:	e02b883a 	mov	r21,fp
   233b4:	b807883a 	mov	r3,r23
   233b8:	003fb006 	br	2327c <__alt_data_end+0xfffe327c>
   233bc:	9028d43a 	srli	r20,r18,16
   233c0:	982cd43a 	srli	r22,r19,16
   233c4:	94bfffcc 	andi	r18,r18,65535
   233c8:	9cffffcc 	andi	r19,r19,65535
   233cc:	980b883a 	mov	r5,r19
   233d0:	9009883a 	mov	r4,r18
   233d4:	d9c00015 	stw	r7,0(sp)
   233d8:	0022c300 	call	22c30 <__mulsi3>
   233dc:	a00b883a 	mov	r5,r20
   233e0:	9809883a 	mov	r4,r19
   233e4:	1023883a 	mov	r17,r2
   233e8:	0022c300 	call	22c30 <__mulsi3>
   233ec:	a009883a 	mov	r4,r20
   233f0:	b00b883a 	mov	r5,r22
   233f4:	1027883a 	mov	r19,r2
   233f8:	0022c300 	call	22c30 <__mulsi3>
   233fc:	b00b883a 	mov	r5,r22
   23400:	9009883a 	mov	r4,r18
   23404:	1029883a 	mov	r20,r2
   23408:	0022c300 	call	22c30 <__mulsi3>
   2340c:	8806d43a 	srli	r3,r17,16
   23410:	14c5883a 	add	r2,r2,r19
   23414:	d9c00017 	ldw	r7,0(sp)
   23418:	1885883a 	add	r2,r3,r2
   2341c:	14c0022e 	bgeu	r2,r19,23428 <__mulsf3+0x2d4>
   23420:	00c00074 	movhi	r3,1
   23424:	a0e9883a 	add	r20,r20,r3
   23428:	1026943a 	slli	r19,r2,16
   2342c:	8c7fffcc 	andi	r17,r17,65535
   23430:	1004d43a 	srli	r2,r2,16
   23434:	9c63883a 	add	r17,r19,r17
   23438:	882691ba 	slli	r19,r17,6
   2343c:	1505883a 	add	r2,r2,r20
   23440:	8822d6ba 	srli	r17,r17,26
   23444:	100891ba 	slli	r4,r2,6
   23448:	9826c03a 	cmpne	r19,r19,zero
   2344c:	9c62b03a 	or	r17,r19,r17
   23450:	8926b03a 	or	r19,r17,r4
   23454:	9882002c 	andhi	r2,r19,2048
   23458:	10000426 	beq	r2,zero,2346c <__mulsf3+0x318>
   2345c:	9804d07a 	srli	r2,r19,1
   23460:	9900004c 	andi	r4,r19,1
   23464:	3821883a 	mov	r16,r7
   23468:	1126b03a 	or	r19,r2,r4
   2346c:	80c01fc4 	addi	r3,r16,127
   23470:	00c0210e 	bge	zero,r3,234f8 <__mulsf3+0x3a4>
   23474:	988001cc 	andi	r2,r19,7
   23478:	10000426 	beq	r2,zero,2348c <__mulsf3+0x338>
   2347c:	988003cc 	andi	r2,r19,15
   23480:	01000104 	movi	r4,4
   23484:	11000126 	beq	r2,r4,2348c <__mulsf3+0x338>
   23488:	9927883a 	add	r19,r19,r4
   2348c:	9882002c 	andhi	r2,r19,2048
   23490:	10000426 	beq	r2,zero,234a4 <__mulsf3+0x350>
   23494:	00be0034 	movhi	r2,63488
   23498:	10bfffc4 	addi	r2,r2,-1
   2349c:	80c02004 	addi	r3,r16,128
   234a0:	98a6703a 	and	r19,r19,r2
   234a4:	00803f84 	movi	r2,254
   234a8:	10ff9c16 	blt	r2,r3,2331c <__alt_data_end+0xfffe331c>
   234ac:	980891ba 	slli	r4,r19,6
   234b0:	a829883a 	mov	r20,r21
   234b4:	2008d27a 	srli	r4,r4,9
   234b8:	003f7906 	br	232a0 <__alt_data_end+0xfffe32a0>
   234bc:	9080102c 	andhi	r2,r18,64
   234c0:	10000826 	beq	r2,zero,234e4 <__mulsf3+0x390>
   234c4:	9880102c 	andhi	r2,r19,64
   234c8:	1000061e 	bne	r2,zero,234e4 <__mulsf3+0x390>
   234cc:	00802034 	movhi	r2,128
   234d0:	99001034 	orhi	r4,r19,64
   234d4:	10bfffc4 	addi	r2,r2,-1
   234d8:	b029883a 	mov	r20,r22
   234dc:	2088703a 	and	r4,r4,r2
   234e0:	003fad06 	br	23398 <__alt_data_end+0xfffe3398>
   234e4:	00802034 	movhi	r2,128
   234e8:	91001034 	orhi	r4,r18,64
   234ec:	10bfffc4 	addi	r2,r2,-1
   234f0:	2088703a 	and	r4,r4,r2
   234f4:	003fa806 	br	23398 <__alt_data_end+0xfffe3398>
   234f8:	00800044 	movi	r2,1
   234fc:	10c7c83a 	sub	r3,r2,r3
   23500:	008006c4 	movi	r2,27
   23504:	10ff6316 	blt	r2,r3,23294 <__alt_data_end+0xfffe3294>
   23508:	00800804 	movi	r2,32
   2350c:	10c5c83a 	sub	r2,r2,r3
   23510:	9884983a 	sll	r2,r19,r2
   23514:	98c6d83a 	srl	r3,r19,r3
   23518:	1004c03a 	cmpne	r2,r2,zero
   2351c:	1884b03a 	or	r2,r3,r2
   23520:	10c001cc 	andi	r3,r2,7
   23524:	18000426 	beq	r3,zero,23538 <__mulsf3+0x3e4>
   23528:	10c003cc 	andi	r3,r2,15
   2352c:	01000104 	movi	r4,4
   23530:	19000126 	beq	r3,r4,23538 <__mulsf3+0x3e4>
   23534:	1105883a 	add	r2,r2,r4
   23538:	10c1002c 	andhi	r3,r2,1024
   2353c:	18000626 	beq	r3,zero,23558 <__mulsf3+0x404>
   23540:	a829883a 	mov	r20,r21
   23544:	00c00044 	movi	r3,1
   23548:	0009883a 	mov	r4,zero
   2354c:	003f5406 	br	232a0 <__alt_data_end+0xfffe32a0>
   23550:	3821883a 	mov	r16,r7
   23554:	003fc506 	br	2346c <__alt_data_end+0xfffe346c>
   23558:	100491ba 	slli	r2,r2,6
   2355c:	a829883a 	mov	r20,r21
   23560:	0007883a 	mov	r3,zero
   23564:	1008d27a 	srli	r4,r2,9
   23568:	003f4d06 	br	232a0 <__alt_data_end+0xfffe32a0>
   2356c:	00802034 	movhi	r2,128
   23570:	99001034 	orhi	r4,r19,64
   23574:	10bfffc4 	addi	r2,r2,-1
   23578:	a829883a 	mov	r20,r21
   2357c:	2088703a 	and	r4,r4,r2
   23580:	003f8506 	br	23398 <__alt_data_end+0xfffe3398>

00023584 <__subsf3>:
   23584:	defffc04 	addi	sp,sp,-16
   23588:	280cd5fa 	srli	r6,r5,23
   2358c:	dc000015 	stw	r16,0(sp)
   23590:	01c02034 	movhi	r7,128
   23594:	2020d5fa 	srli	r16,r4,23
   23598:	39ffffc4 	addi	r7,r7,-1
   2359c:	3906703a 	and	r3,r7,r4
   235a0:	dc400115 	stw	r17,4(sp)
   235a4:	394e703a 	and	r7,r7,r5
   235a8:	2022d7fa 	srli	r17,r4,31
   235ac:	dfc00315 	stw	ra,12(sp)
   235b0:	dc800215 	stw	r18,8(sp)
   235b4:	31803fcc 	andi	r6,r6,255
   235b8:	01003fc4 	movi	r4,255
   235bc:	84003fcc 	andi	r16,r16,255
   235c0:	180690fa 	slli	r3,r3,3
   235c4:	2804d7fa 	srli	r2,r5,31
   235c8:	380e90fa 	slli	r7,r7,3
   235cc:	31006d26 	beq	r6,r4,23784 <__subsf3+0x200>
   235d0:	1080005c 	xori	r2,r2,1
   235d4:	8189c83a 	sub	r4,r16,r6
   235d8:	14404f26 	beq	r2,r17,23718 <__subsf3+0x194>
   235dc:	0100770e 	bge	zero,r4,237bc <__subsf3+0x238>
   235e0:	30001e1e 	bne	r6,zero,2365c <__subsf3+0xd8>
   235e4:	38006a1e 	bne	r7,zero,23790 <__subsf3+0x20c>
   235e8:	188001cc 	andi	r2,r3,7
   235ec:	10000426 	beq	r2,zero,23600 <__subsf3+0x7c>
   235f0:	188003cc 	andi	r2,r3,15
   235f4:	01000104 	movi	r4,4
   235f8:	11000126 	beq	r2,r4,23600 <__subsf3+0x7c>
   235fc:	1907883a 	add	r3,r3,r4
   23600:	1881002c 	andhi	r2,r3,1024
   23604:	10003926 	beq	r2,zero,236ec <__subsf3+0x168>
   23608:	84000044 	addi	r16,r16,1
   2360c:	00803fc4 	movi	r2,255
   23610:	80807526 	beq	r16,r2,237e8 <__subsf3+0x264>
   23614:	180691ba 	slli	r3,r3,6
   23618:	8880004c 	andi	r2,r17,1
   2361c:	180ad27a 	srli	r5,r3,9
   23620:	84003fcc 	andi	r16,r16,255
   23624:	800695fa 	slli	r3,r16,23
   23628:	10803fcc 	andi	r2,r2,255
   2362c:	01002034 	movhi	r4,128
   23630:	213fffc4 	addi	r4,r4,-1
   23634:	100497fa 	slli	r2,r2,31
   23638:	2920703a 	and	r16,r5,r4
   2363c:	80e0b03a 	or	r16,r16,r3
   23640:	8084b03a 	or	r2,r16,r2
   23644:	dfc00317 	ldw	ra,12(sp)
   23648:	dc800217 	ldw	r18,8(sp)
   2364c:	dc400117 	ldw	r17,4(sp)
   23650:	dc000017 	ldw	r16,0(sp)
   23654:	dec00404 	addi	sp,sp,16
   23658:	f800283a 	ret
   2365c:	00803fc4 	movi	r2,255
   23660:	80bfe126 	beq	r16,r2,235e8 <__alt_data_end+0xfffe35e8>
   23664:	39c10034 	orhi	r7,r7,1024
   23668:	008006c4 	movi	r2,27
   2366c:	11007416 	blt	r2,r4,23840 <__subsf3+0x2bc>
   23670:	00800804 	movi	r2,32
   23674:	1105c83a 	sub	r2,r2,r4
   23678:	3884983a 	sll	r2,r7,r2
   2367c:	390ed83a 	srl	r7,r7,r4
   23680:	1008c03a 	cmpne	r4,r2,zero
   23684:	390eb03a 	or	r7,r7,r4
   23688:	19c7c83a 	sub	r3,r3,r7
   2368c:	1881002c 	andhi	r2,r3,1024
   23690:	10001426 	beq	r2,zero,236e4 <__subsf3+0x160>
   23694:	04810034 	movhi	r18,1024
   23698:	94bfffc4 	addi	r18,r18,-1
   2369c:	1ca4703a 	and	r18,r3,r18
   236a0:	9009883a 	mov	r4,r18
   236a4:	00259ec0 	call	259ec <__clzsi2>
   236a8:	10bffec4 	addi	r2,r2,-5
   236ac:	90a4983a 	sll	r18,r18,r2
   236b0:	14005116 	blt	r2,r16,237f8 <__subsf3+0x274>
   236b4:	1405c83a 	sub	r2,r2,r16
   236b8:	10c00044 	addi	r3,r2,1
   236bc:	00800804 	movi	r2,32
   236c0:	10c5c83a 	sub	r2,r2,r3
   236c4:	9084983a 	sll	r2,r18,r2
   236c8:	90e4d83a 	srl	r18,r18,r3
   236cc:	0021883a 	mov	r16,zero
   236d0:	1006c03a 	cmpne	r3,r2,zero
   236d4:	90c6b03a 	or	r3,r18,r3
   236d8:	003fc306 	br	235e8 <__alt_data_end+0xfffe35e8>
   236dc:	2000e026 	beq	r4,zero,23a60 <__subsf3+0x4dc>
   236e0:	2007883a 	mov	r3,r4
   236e4:	188001cc 	andi	r2,r3,7
   236e8:	103fc11e 	bne	r2,zero,235f0 <__alt_data_end+0xfffe35f0>
   236ec:	180ad0fa 	srli	r5,r3,3
   236f0:	00c03fc4 	movi	r3,255
   236f4:	8880004c 	andi	r2,r17,1
   236f8:	80c0031e 	bne	r16,r3,23708 <__subsf3+0x184>
   236fc:	28006d26 	beq	r5,zero,238b4 <__subsf3+0x330>
   23700:	29401034 	orhi	r5,r5,64
   23704:	043fffc4 	movi	r16,-1
   23708:	00c02034 	movhi	r3,128
   2370c:	18ffffc4 	addi	r3,r3,-1
   23710:	28ca703a 	and	r5,r5,r3
   23714:	003fc206 	br	23620 <__alt_data_end+0xfffe3620>
   23718:	01003c0e 	bge	zero,r4,2380c <__subsf3+0x288>
   2371c:	30002126 	beq	r6,zero,237a4 <__subsf3+0x220>
   23720:	01403fc4 	movi	r5,255
   23724:	817fb026 	beq	r16,r5,235e8 <__alt_data_end+0xfffe35e8>
   23728:	39c10034 	orhi	r7,r7,1024
   2372c:	014006c4 	movi	r5,27
   23730:	29007416 	blt	r5,r4,23904 <__subsf3+0x380>
   23734:	01400804 	movi	r5,32
   23738:	290bc83a 	sub	r5,r5,r4
   2373c:	394a983a 	sll	r5,r7,r5
   23740:	390ed83a 	srl	r7,r7,r4
   23744:	2808c03a 	cmpne	r4,r5,zero
   23748:	390eb03a 	or	r7,r7,r4
   2374c:	19c7883a 	add	r3,r3,r7
   23750:	1901002c 	andhi	r4,r3,1024
   23754:	20003826 	beq	r4,zero,23838 <__subsf3+0x2b4>
   23758:	84000044 	addi	r16,r16,1
   2375c:	01003fc4 	movi	r4,255
   23760:	81005426 	beq	r16,r4,238b4 <__subsf3+0x330>
   23764:	1023883a 	mov	r17,r2
   23768:	00bf0034 	movhi	r2,64512
   2376c:	10bfffc4 	addi	r2,r2,-1
   23770:	1900004c 	andi	r4,r3,1
   23774:	1886703a 	and	r3,r3,r2
   23778:	1806d07a 	srli	r3,r3,1
   2377c:	1906b03a 	or	r3,r3,r4
   23780:	003f9906 	br	235e8 <__alt_data_end+0xfffe35e8>
   23784:	383f9226 	beq	r7,zero,235d0 <__alt_data_end+0xfffe35d0>
   23788:	10803fcc 	andi	r2,r2,255
   2378c:	003f9106 	br	235d4 <__alt_data_end+0xfffe35d4>
   23790:	213fffc4 	addi	r4,r4,-1
   23794:	203fbc26 	beq	r4,zero,23688 <__alt_data_end+0xfffe3688>
   23798:	00803fc4 	movi	r2,255
   2379c:	80bfb21e 	bne	r16,r2,23668 <__alt_data_end+0xfffe3668>
   237a0:	003f9106 	br	235e8 <__alt_data_end+0xfffe35e8>
   237a4:	383f9026 	beq	r7,zero,235e8 <__alt_data_end+0xfffe35e8>
   237a8:	213fffc4 	addi	r4,r4,-1
   237ac:	203fe726 	beq	r4,zero,2374c <__alt_data_end+0xfffe374c>
   237b0:	01403fc4 	movi	r5,255
   237b4:	817fdd1e 	bne	r16,r5,2372c <__alt_data_end+0xfffe372c>
   237b8:	003f8b06 	br	235e8 <__alt_data_end+0xfffe35e8>
   237bc:	2000221e 	bne	r4,zero,23848 <__subsf3+0x2c4>
   237c0:	81000044 	addi	r4,r16,1
   237c4:	21003fcc 	andi	r4,r4,255
   237c8:	01400044 	movi	r5,1
   237cc:	2900470e 	bge	r5,r4,238ec <__subsf3+0x368>
   237d0:	19e5c83a 	sub	r18,r3,r7
   237d4:	9141002c 	andhi	r5,r18,1024
   237d8:	28002d26 	beq	r5,zero,23890 <__subsf3+0x30c>
   237dc:	38e5c83a 	sub	r18,r7,r3
   237e0:	1023883a 	mov	r17,r2
   237e4:	003fae06 	br	236a0 <__alt_data_end+0xfffe36a0>
   237e8:	8880004c 	andi	r2,r17,1
   237ec:	043fffc4 	movi	r16,-1
   237f0:	000b883a 	mov	r5,zero
   237f4:	003f8a06 	br	23620 <__alt_data_end+0xfffe3620>
   237f8:	00ff0034 	movhi	r3,64512
   237fc:	18ffffc4 	addi	r3,r3,-1
   23800:	80a1c83a 	sub	r16,r16,r2
   23804:	90c6703a 	and	r3,r18,r3
   23808:	003f7706 	br	235e8 <__alt_data_end+0xfffe35e8>
   2380c:	2000431e 	bne	r4,zero,2391c <__subsf3+0x398>
   23810:	81000044 	addi	r4,r16,1
   23814:	21803fcc 	andi	r6,r4,255
   23818:	01400044 	movi	r5,1
   2381c:	2980280e 	bge	r5,r6,238c0 <__subsf3+0x33c>
   23820:	01403fc4 	movi	r5,255
   23824:	21402326 	beq	r4,r5,238b4 <__subsf3+0x330>
   23828:	19c7883a 	add	r3,r3,r7
   2382c:	1806d07a 	srli	r3,r3,1
   23830:	2021883a 	mov	r16,r4
   23834:	003f6c06 	br	235e8 <__alt_data_end+0xfffe35e8>
   23838:	1023883a 	mov	r17,r2
   2383c:	003fa906 	br	236e4 <__alt_data_end+0xfffe36e4>
   23840:	01c00044 	movi	r7,1
   23844:	003f9006 	br	23688 <__alt_data_end+0xfffe3688>
   23848:	8000151e 	bne	r16,zero,238a0 <__subsf3+0x31c>
   2384c:	18002f26 	beq	r3,zero,2390c <__subsf3+0x388>
   23850:	0108303a 	nor	r4,zero,r4
   23854:	20000a26 	beq	r4,zero,23880 <__subsf3+0x2fc>
   23858:	01403fc4 	movi	r5,255
   2385c:	31402b26 	beq	r6,r5,2390c <__subsf3+0x388>
   23860:	014006c4 	movi	r5,27
   23864:	29006e16 	blt	r5,r4,23a20 <__subsf3+0x49c>
   23868:	01400804 	movi	r5,32
   2386c:	290bc83a 	sub	r5,r5,r4
   23870:	194a983a 	sll	r5,r3,r5
   23874:	1908d83a 	srl	r4,r3,r4
   23878:	2806c03a 	cmpne	r3,r5,zero
   2387c:	20c6b03a 	or	r3,r4,r3
   23880:	38c7c83a 	sub	r3,r7,r3
   23884:	3021883a 	mov	r16,r6
   23888:	1023883a 	mov	r17,r2
   2388c:	003f7f06 	br	2368c <__alt_data_end+0xfffe368c>
   23890:	903f831e 	bne	r18,zero,236a0 <__alt_data_end+0xfffe36a0>
   23894:	0005883a 	mov	r2,zero
   23898:	0021883a 	mov	r16,zero
   2389c:	003f9a06 	br	23708 <__alt_data_end+0xfffe3708>
   238a0:	01403fc4 	movi	r5,255
   238a4:	31401926 	beq	r6,r5,2390c <__subsf3+0x388>
   238a8:	0109c83a 	sub	r4,zero,r4
   238ac:	18c10034 	orhi	r3,r3,1024
   238b0:	003feb06 	br	23860 <__alt_data_end+0xfffe3860>
   238b4:	043fffc4 	movi	r16,-1
   238b8:	000b883a 	mov	r5,zero
   238bc:	003f5806 	br	23620 <__alt_data_end+0xfffe3620>
   238c0:	8000481e 	bne	r16,zero,239e4 <__subsf3+0x460>
   238c4:	18006226 	beq	r3,zero,23a50 <__subsf3+0x4cc>
   238c8:	383f4726 	beq	r7,zero,235e8 <__alt_data_end+0xfffe35e8>
   238cc:	19c7883a 	add	r3,r3,r7
   238d0:	1881002c 	andhi	r2,r3,1024
   238d4:	103f8326 	beq	r2,zero,236e4 <__alt_data_end+0xfffe36e4>
   238d8:	00bf0034 	movhi	r2,64512
   238dc:	10bfffc4 	addi	r2,r2,-1
   238e0:	2821883a 	mov	r16,r5
   238e4:	1886703a 	and	r3,r3,r2
   238e8:	003f3f06 	br	235e8 <__alt_data_end+0xfffe35e8>
   238ec:	80001c1e 	bne	r16,zero,23960 <__subsf3+0x3dc>
   238f0:	1800261e 	bne	r3,zero,2398c <__subsf3+0x408>
   238f4:	38004c26 	beq	r7,zero,23a28 <__subsf3+0x4a4>
   238f8:	3807883a 	mov	r3,r7
   238fc:	1023883a 	mov	r17,r2
   23900:	003f3906 	br	235e8 <__alt_data_end+0xfffe35e8>
   23904:	01c00044 	movi	r7,1
   23908:	003f9006 	br	2374c <__alt_data_end+0xfffe374c>
   2390c:	3807883a 	mov	r3,r7
   23910:	3021883a 	mov	r16,r6
   23914:	1023883a 	mov	r17,r2
   23918:	003f3306 	br	235e8 <__alt_data_end+0xfffe35e8>
   2391c:	8000161e 	bne	r16,zero,23978 <__subsf3+0x3f4>
   23920:	18002d26 	beq	r3,zero,239d8 <__subsf3+0x454>
   23924:	0108303a 	nor	r4,zero,r4
   23928:	20000a26 	beq	r4,zero,23954 <__subsf3+0x3d0>
   2392c:	01403fc4 	movi	r5,255
   23930:	31402926 	beq	r6,r5,239d8 <__subsf3+0x454>
   23934:	014006c4 	movi	r5,27
   23938:	29004716 	blt	r5,r4,23a58 <__subsf3+0x4d4>
   2393c:	01400804 	movi	r5,32
   23940:	290bc83a 	sub	r5,r5,r4
   23944:	194a983a 	sll	r5,r3,r5
   23948:	1908d83a 	srl	r4,r3,r4
   2394c:	2806c03a 	cmpne	r3,r5,zero
   23950:	20c6b03a 	or	r3,r4,r3
   23954:	19c7883a 	add	r3,r3,r7
   23958:	3021883a 	mov	r16,r6
   2395c:	003f7c06 	br	23750 <__alt_data_end+0xfffe3750>
   23960:	1800111e 	bne	r3,zero,239a8 <__subsf3+0x424>
   23964:	38003326 	beq	r7,zero,23a34 <__subsf3+0x4b0>
   23968:	3807883a 	mov	r3,r7
   2396c:	1023883a 	mov	r17,r2
   23970:	04003fc4 	movi	r16,255
   23974:	003f1c06 	br	235e8 <__alt_data_end+0xfffe35e8>
   23978:	01403fc4 	movi	r5,255
   2397c:	31401626 	beq	r6,r5,239d8 <__subsf3+0x454>
   23980:	0109c83a 	sub	r4,zero,r4
   23984:	18c10034 	orhi	r3,r3,1024
   23988:	003fea06 	br	23934 <__alt_data_end+0xfffe3934>
   2398c:	383f1626 	beq	r7,zero,235e8 <__alt_data_end+0xfffe35e8>
   23990:	19c9c83a 	sub	r4,r3,r7
   23994:	2141002c 	andhi	r5,r4,1024
   23998:	283f5026 	beq	r5,zero,236dc <__alt_data_end+0xfffe36dc>
   2399c:	38c7c83a 	sub	r3,r7,r3
   239a0:	1023883a 	mov	r17,r2
   239a4:	003f1006 	br	235e8 <__alt_data_end+0xfffe35e8>
   239a8:	38001b26 	beq	r7,zero,23a18 <__subsf3+0x494>
   239ac:	1806d0fa 	srli	r3,r3,3
   239b0:	1900102c 	andhi	r4,r3,64
   239b4:	20000526 	beq	r4,zero,239cc <__subsf3+0x448>
   239b8:	380ed0fa 	srli	r7,r7,3
   239bc:	3900102c 	andhi	r4,r7,64
   239c0:	2000021e 	bne	r4,zero,239cc <__subsf3+0x448>
   239c4:	3807883a 	mov	r3,r7
   239c8:	1023883a 	mov	r17,r2
   239cc:	180690fa 	slli	r3,r3,3
   239d0:	04003fc4 	movi	r16,255
   239d4:	003f0406 	br	235e8 <__alt_data_end+0xfffe35e8>
   239d8:	3807883a 	mov	r3,r7
   239dc:	3021883a 	mov	r16,r6
   239e0:	003f0106 	br	235e8 <__alt_data_end+0xfffe35e8>
   239e4:	18001726 	beq	r3,zero,23a44 <__subsf3+0x4c0>
   239e8:	38000b26 	beq	r7,zero,23a18 <__subsf3+0x494>
   239ec:	1806d0fa 	srli	r3,r3,3
   239f0:	1900102c 	andhi	r4,r3,64
   239f4:	20000426 	beq	r4,zero,23a08 <__subsf3+0x484>
   239f8:	380ed0fa 	srli	r7,r7,3
   239fc:	3900102c 	andhi	r4,r7,64
   23a00:	2000011e 	bne	r4,zero,23a08 <__subsf3+0x484>
   23a04:	3807883a 	mov	r3,r7
   23a08:	180690fa 	slli	r3,r3,3
   23a0c:	1023883a 	mov	r17,r2
   23a10:	04003fc4 	movi	r16,255
   23a14:	003ef406 	br	235e8 <__alt_data_end+0xfffe35e8>
   23a18:	04003fc4 	movi	r16,255
   23a1c:	003ef206 	br	235e8 <__alt_data_end+0xfffe35e8>
   23a20:	00c00044 	movi	r3,1
   23a24:	003f9606 	br	23880 <__alt_data_end+0xfffe3880>
   23a28:	000b883a 	mov	r5,zero
   23a2c:	0005883a 	mov	r2,zero
   23a30:	003f3506 	br	23708 <__alt_data_end+0xfffe3708>
   23a34:	01402034 	movhi	r5,128
   23a38:	297fffc4 	addi	r5,r5,-1
   23a3c:	0005883a 	mov	r2,zero
   23a40:	003f2f06 	br	23700 <__alt_data_end+0xfffe3700>
   23a44:	3807883a 	mov	r3,r7
   23a48:	04003fc4 	movi	r16,255
   23a4c:	003ee606 	br	235e8 <__alt_data_end+0xfffe35e8>
   23a50:	3807883a 	mov	r3,r7
   23a54:	003ee406 	br	235e8 <__alt_data_end+0xfffe35e8>
   23a58:	00c00044 	movi	r3,1
   23a5c:	003fbd06 	br	23954 <__alt_data_end+0xfffe3954>
   23a60:	0005883a 	mov	r2,zero
   23a64:	003f2806 	br	23708 <__alt_data_end+0xfffe3708>

00023a68 <__fixsfsi>:
   23a68:	200ad5fa 	srli	r5,r4,23
   23a6c:	00c02034 	movhi	r3,128
   23a70:	18ffffc4 	addi	r3,r3,-1
   23a74:	29403fcc 	andi	r5,r5,255
   23a78:	00801f84 	movi	r2,126
   23a7c:	1906703a 	and	r3,r3,r4
   23a80:	2008d7fa 	srli	r4,r4,31
   23a84:	11400e0e 	bge	r2,r5,23ac0 <__fixsfsi+0x58>
   23a88:	00802744 	movi	r2,157
   23a8c:	11400816 	blt	r2,r5,23ab0 <__fixsfsi+0x48>
   23a90:	00802544 	movi	r2,149
   23a94:	18c02034 	orhi	r3,r3,128
   23a98:	11400b0e 	bge	r2,r5,23ac8 <__fixsfsi+0x60>
   23a9c:	28bfda84 	addi	r2,r5,-150
   23aa0:	1884983a 	sll	r2,r3,r2
   23aa4:	20000726 	beq	r4,zero,23ac4 <__fixsfsi+0x5c>
   23aa8:	0085c83a 	sub	r2,zero,r2
   23aac:	f800283a 	ret
   23ab0:	00a00034 	movhi	r2,32768
   23ab4:	10bfffc4 	addi	r2,r2,-1
   23ab8:	2085883a 	add	r2,r4,r2
   23abc:	f800283a 	ret
   23ac0:	0005883a 	mov	r2,zero
   23ac4:	f800283a 	ret
   23ac8:	00802584 	movi	r2,150
   23acc:	1145c83a 	sub	r2,r2,r5
   23ad0:	1884d83a 	srl	r2,r3,r2
   23ad4:	003ff306 	br	23aa4 <__alt_data_end+0xfffe3aa4>

00023ad8 <__floatsisf>:
   23ad8:	defffd04 	addi	sp,sp,-12
   23adc:	dfc00215 	stw	ra,8(sp)
   23ae0:	dc400115 	stw	r17,4(sp)
   23ae4:	dc000015 	stw	r16,0(sp)
   23ae8:	20003526 	beq	r4,zero,23bc0 <__floatsisf+0xe8>
   23aec:	2021883a 	mov	r16,r4
   23af0:	2022d7fa 	srli	r17,r4,31
   23af4:	20003616 	blt	r4,zero,23bd0 <__floatsisf+0xf8>
   23af8:	8009883a 	mov	r4,r16
   23afc:	00259ec0 	call	259ec <__clzsi2>
   23b00:	00c02784 	movi	r3,158
   23b04:	1887c83a 	sub	r3,r3,r2
   23b08:	01002584 	movi	r4,150
   23b0c:	20c01416 	blt	r4,r3,23b60 <__floatsisf+0x88>
   23b10:	20c9c83a 	sub	r4,r4,r3
   23b14:	8120983a 	sll	r16,r16,r4
   23b18:	00802034 	movhi	r2,128
   23b1c:	10bfffc4 	addi	r2,r2,-1
   23b20:	8809883a 	mov	r4,r17
   23b24:	80a0703a 	and	r16,r16,r2
   23b28:	18803fcc 	andi	r2,r3,255
   23b2c:	100695fa 	slli	r3,r2,23
   23b30:	20803fcc 	andi	r2,r4,255
   23b34:	100897fa 	slli	r4,r2,31
   23b38:	00802034 	movhi	r2,128
   23b3c:	10bfffc4 	addi	r2,r2,-1
   23b40:	8084703a 	and	r2,r16,r2
   23b44:	10c4b03a 	or	r2,r2,r3
   23b48:	1104b03a 	or	r2,r2,r4
   23b4c:	dfc00217 	ldw	ra,8(sp)
   23b50:	dc400117 	ldw	r17,4(sp)
   23b54:	dc000017 	ldw	r16,0(sp)
   23b58:	dec00304 	addi	sp,sp,12
   23b5c:	f800283a 	ret
   23b60:	01002644 	movi	r4,153
   23b64:	20c01c16 	blt	r4,r3,23bd8 <__floatsisf+0x100>
   23b68:	20c9c83a 	sub	r4,r4,r3
   23b6c:	8120983a 	sll	r16,r16,r4
   23b70:	013f0034 	movhi	r4,64512
   23b74:	213fffc4 	addi	r4,r4,-1
   23b78:	814001cc 	andi	r5,r16,7
   23b7c:	8108703a 	and	r4,r16,r4
   23b80:	28000426 	beq	r5,zero,23b94 <__floatsisf+0xbc>
   23b84:	840003cc 	andi	r16,r16,15
   23b88:	01400104 	movi	r5,4
   23b8c:	81400126 	beq	r16,r5,23b94 <__floatsisf+0xbc>
   23b90:	2149883a 	add	r4,r4,r5
   23b94:	2141002c 	andhi	r5,r4,1024
   23b98:	28000526 	beq	r5,zero,23bb0 <__floatsisf+0xd8>
   23b9c:	00c027c4 	movi	r3,159
   23ba0:	1887c83a 	sub	r3,r3,r2
   23ba4:	00bf0034 	movhi	r2,64512
   23ba8:	10bfffc4 	addi	r2,r2,-1
   23bac:	2088703a 	and	r4,r4,r2
   23bb0:	202091ba 	slli	r16,r4,6
   23bb4:	8809883a 	mov	r4,r17
   23bb8:	8020d27a 	srli	r16,r16,9
   23bbc:	003fda06 	br	23b28 <__alt_data_end+0xfffe3b28>
   23bc0:	0009883a 	mov	r4,zero
   23bc4:	0007883a 	mov	r3,zero
   23bc8:	0021883a 	mov	r16,zero
   23bcc:	003fd606 	br	23b28 <__alt_data_end+0xfffe3b28>
   23bd0:	0121c83a 	sub	r16,zero,r4
   23bd4:	003fc806 	br	23af8 <__alt_data_end+0xfffe3af8>
   23bd8:	01002e44 	movi	r4,185
   23bdc:	20c9c83a 	sub	r4,r4,r3
   23be0:	01400144 	movi	r5,5
   23be4:	8108983a 	sll	r4,r16,r4
   23be8:	288bc83a 	sub	r5,r5,r2
   23bec:	8160d83a 	srl	r16,r16,r5
   23bf0:	2008c03a 	cmpne	r4,r4,zero
   23bf4:	8120b03a 	or	r16,r16,r4
   23bf8:	003fdd06 	br	23b70 <__alt_data_end+0xfffe3b70>

00023bfc <__divdf3>:
   23bfc:	defff004 	addi	sp,sp,-64
   23c00:	dc800815 	stw	r18,32(sp)
   23c04:	2824d53a 	srli	r18,r5,20
   23c08:	dd800c15 	stw	r22,48(sp)
   23c0c:	282cd7fa 	srli	r22,r5,31
   23c10:	dc000615 	stw	r16,24(sp)
   23c14:	04000434 	movhi	r16,16
   23c18:	843fffc4 	addi	r16,r16,-1
   23c1c:	dfc00f15 	stw	ra,60(sp)
   23c20:	df000e15 	stw	fp,56(sp)
   23c24:	ddc00d15 	stw	r23,52(sp)
   23c28:	dd400b15 	stw	r21,44(sp)
   23c2c:	dd000a15 	stw	r20,40(sp)
   23c30:	dcc00915 	stw	r19,36(sp)
   23c34:	dc400715 	stw	r17,28(sp)
   23c38:	9481ffcc 	andi	r18,r18,2047
   23c3c:	2c20703a 	and	r16,r5,r16
   23c40:	b2003fcc 	andi	r8,r22,255
   23c44:	90006126 	beq	r18,zero,23dcc <__divdf3+0x1d0>
   23c48:	0081ffc4 	movi	r2,2047
   23c4c:	202b883a 	mov	r21,r4
   23c50:	90803726 	beq	r18,r2,23d30 <__divdf3+0x134>
   23c54:	80800434 	orhi	r2,r16,16
   23c58:	100490fa 	slli	r2,r2,3
   23c5c:	2020d77a 	srli	r16,r4,29
   23c60:	202a90fa 	slli	r21,r4,3
   23c64:	94bf0044 	addi	r18,r18,-1023
   23c68:	80a0b03a 	or	r16,r16,r2
   23c6c:	0013883a 	mov	r9,zero
   23c70:	000b883a 	mov	r5,zero
   23c74:	3806d53a 	srli	r3,r7,20
   23c78:	382ed7fa 	srli	r23,r7,31
   23c7c:	04400434 	movhi	r17,16
   23c80:	8c7fffc4 	addi	r17,r17,-1
   23c84:	18c1ffcc 	andi	r3,r3,2047
   23c88:	3029883a 	mov	r20,r6
   23c8c:	3c62703a 	and	r17,r7,r17
   23c90:	bf003fcc 	andi	fp,r23,255
   23c94:	18006e26 	beq	r3,zero,23e50 <__divdf3+0x254>
   23c98:	0081ffc4 	movi	r2,2047
   23c9c:	18806626 	beq	r3,r2,23e38 <__divdf3+0x23c>
   23ca0:	88800434 	orhi	r2,r17,16
   23ca4:	100490fa 	slli	r2,r2,3
   23ca8:	3022d77a 	srli	r17,r6,29
   23cac:	302890fa 	slli	r20,r6,3
   23cb0:	18ff0044 	addi	r3,r3,-1023
   23cb4:	88a2b03a 	or	r17,r17,r2
   23cb8:	000f883a 	mov	r7,zero
   23cbc:	b5e6f03a 	xor	r19,r22,r23
   23cc0:	3a4cb03a 	or	r6,r7,r9
   23cc4:	008003c4 	movi	r2,15
   23cc8:	9809883a 	mov	r4,r19
   23ccc:	90c7c83a 	sub	r3,r18,r3
   23cd0:	9cc03fcc 	andi	r19,r19,255
   23cd4:	11809636 	bltu	r2,r6,23f30 <__divdf3+0x334>
   23cd8:	300c90ba 	slli	r6,r6,2
   23cdc:	008000b4 	movhi	r2,2
   23ce0:	108f3c04 	addi	r2,r2,15600
   23ce4:	308d883a 	add	r6,r6,r2
   23ce8:	30800017 	ldw	r2,0(r6)
   23cec:	1000683a 	jmp	r2
   23cf0:	00023f30 	cmpltui	zero,zero,2300
   23cf4:	00023d68 	cmpgeui	zero,zero,2293
   23cf8:	00023f20 	cmpeqi	zero,zero,2300
   23cfc:	00023d5c 	xori	zero,zero,2293
   23d00:	00023f20 	cmpeqi	zero,zero,2300
   23d04:	00023ef4 	movhi	zero,2299
   23d08:	00023f20 	cmpeqi	zero,zero,2300
   23d0c:	00023d5c 	xori	zero,zero,2293
   23d10:	00023d68 	cmpgeui	zero,zero,2293
   23d14:	00023d68 	cmpgeui	zero,zero,2293
   23d18:	00023ef4 	movhi	zero,2299
   23d1c:	00023d5c 	xori	zero,zero,2293
   23d20:	00023d4c 	andi	zero,zero,2293
   23d24:	00023d4c 	andi	zero,zero,2293
   23d28:	00023d4c 	andi	zero,zero,2293
   23d2c:	000242b8 	rdprs	zero,zero,2314
   23d30:	2404b03a 	or	r2,r4,r16
   23d34:	10006c1e 	bne	r2,zero,23ee8 <__divdf3+0x2ec>
   23d38:	02400204 	movi	r9,8
   23d3c:	0021883a 	mov	r16,zero
   23d40:	002b883a 	mov	r21,zero
   23d44:	01400084 	movi	r5,2
   23d48:	003fca06 	br	23c74 <__alt_data_end+0xfffe3c74>
   23d4c:	8023883a 	mov	r17,r16
   23d50:	a829883a 	mov	r20,r21
   23d54:	4039883a 	mov	fp,r8
   23d58:	280f883a 	mov	r7,r5
   23d5c:	00800084 	movi	r2,2
   23d60:	3881601e 	bne	r7,r2,242e4 <__divdf3+0x6e8>
   23d64:	e027883a 	mov	r19,fp
   23d68:	9900004c 	andi	r4,r19,1
   23d6c:	0081ffc4 	movi	r2,2047
   23d70:	0021883a 	mov	r16,zero
   23d74:	002b883a 	mov	r21,zero
   23d78:	1004953a 	slli	r2,r2,20
   23d7c:	20c03fcc 	andi	r3,r4,255
   23d80:	01400434 	movhi	r5,16
   23d84:	297fffc4 	addi	r5,r5,-1
   23d88:	180697fa 	slli	r3,r3,31
   23d8c:	8160703a 	and	r16,r16,r5
   23d90:	80a0b03a 	or	r16,r16,r2
   23d94:	80c6b03a 	or	r3,r16,r3
   23d98:	a805883a 	mov	r2,r21
   23d9c:	dfc00f17 	ldw	ra,60(sp)
   23da0:	df000e17 	ldw	fp,56(sp)
   23da4:	ddc00d17 	ldw	r23,52(sp)
   23da8:	dd800c17 	ldw	r22,48(sp)
   23dac:	dd400b17 	ldw	r21,44(sp)
   23db0:	dd000a17 	ldw	r20,40(sp)
   23db4:	dcc00917 	ldw	r19,36(sp)
   23db8:	dc800817 	ldw	r18,32(sp)
   23dbc:	dc400717 	ldw	r17,28(sp)
   23dc0:	dc000617 	ldw	r16,24(sp)
   23dc4:	dec01004 	addi	sp,sp,64
   23dc8:	f800283a 	ret
   23dcc:	2404b03a 	or	r2,r4,r16
   23dd0:	2023883a 	mov	r17,r4
   23dd4:	10003f26 	beq	r2,zero,23ed4 <__divdf3+0x2d8>
   23dd8:	80015e26 	beq	r16,zero,24354 <__divdf3+0x758>
   23ddc:	8009883a 	mov	r4,r16
   23de0:	d9800215 	stw	r6,8(sp)
   23de4:	d9c00515 	stw	r7,20(sp)
   23de8:	da000415 	stw	r8,16(sp)
   23dec:	00259ec0 	call	259ec <__clzsi2>
   23df0:	d9800217 	ldw	r6,8(sp)
   23df4:	d9c00517 	ldw	r7,20(sp)
   23df8:	da000417 	ldw	r8,16(sp)
   23dfc:	113ffd44 	addi	r4,r2,-11
   23e00:	00c00704 	movi	r3,28
   23e04:	19014f16 	blt	r3,r4,24344 <__divdf3+0x748>
   23e08:	00c00744 	movi	r3,29
   23e0c:	157ffe04 	addi	r21,r2,-8
   23e10:	1907c83a 	sub	r3,r3,r4
   23e14:	8560983a 	sll	r16,r16,r21
   23e18:	88c6d83a 	srl	r3,r17,r3
   23e1c:	8d6a983a 	sll	r21,r17,r21
   23e20:	1c20b03a 	or	r16,r3,r16
   23e24:	1080fcc4 	addi	r2,r2,1011
   23e28:	00a5c83a 	sub	r18,zero,r2
   23e2c:	0013883a 	mov	r9,zero
   23e30:	000b883a 	mov	r5,zero
   23e34:	003f8f06 	br	23c74 <__alt_data_end+0xfffe3c74>
   23e38:	3444b03a 	or	r2,r6,r17
   23e3c:	1000231e 	bne	r2,zero,23ecc <__divdf3+0x2d0>
   23e40:	0023883a 	mov	r17,zero
   23e44:	0029883a 	mov	r20,zero
   23e48:	01c00084 	movi	r7,2
   23e4c:	003f9b06 	br	23cbc <__alt_data_end+0xfffe3cbc>
   23e50:	3444b03a 	or	r2,r6,r17
   23e54:	10001926 	beq	r2,zero,23ebc <__divdf3+0x2c0>
   23e58:	88014b26 	beq	r17,zero,24388 <__divdf3+0x78c>
   23e5c:	8809883a 	mov	r4,r17
   23e60:	d9400115 	stw	r5,4(sp)
   23e64:	d9800215 	stw	r6,8(sp)
   23e68:	da000415 	stw	r8,16(sp)
   23e6c:	da400315 	stw	r9,12(sp)
   23e70:	00259ec0 	call	259ec <__clzsi2>
   23e74:	d9400117 	ldw	r5,4(sp)
   23e78:	d9800217 	ldw	r6,8(sp)
   23e7c:	da000417 	ldw	r8,16(sp)
   23e80:	da400317 	ldw	r9,12(sp)
   23e84:	113ffd44 	addi	r4,r2,-11
   23e88:	00c00704 	movi	r3,28
   23e8c:	19013a16 	blt	r3,r4,24378 <__divdf3+0x77c>
   23e90:	00c00744 	movi	r3,29
   23e94:	153ffe04 	addi	r20,r2,-8
   23e98:	1907c83a 	sub	r3,r3,r4
   23e9c:	8d22983a 	sll	r17,r17,r20
   23ea0:	30c6d83a 	srl	r3,r6,r3
   23ea4:	3528983a 	sll	r20,r6,r20
   23ea8:	1c62b03a 	or	r17,r3,r17
   23eac:	1080fcc4 	addi	r2,r2,1011
   23eb0:	0087c83a 	sub	r3,zero,r2
   23eb4:	000f883a 	mov	r7,zero
   23eb8:	003f8006 	br	23cbc <__alt_data_end+0xfffe3cbc>
   23ebc:	0023883a 	mov	r17,zero
   23ec0:	0029883a 	mov	r20,zero
   23ec4:	01c00044 	movi	r7,1
   23ec8:	003f7c06 	br	23cbc <__alt_data_end+0xfffe3cbc>
   23ecc:	01c000c4 	movi	r7,3
   23ed0:	003f7a06 	br	23cbc <__alt_data_end+0xfffe3cbc>
   23ed4:	02400104 	movi	r9,4
   23ed8:	0021883a 	mov	r16,zero
   23edc:	002b883a 	mov	r21,zero
   23ee0:	01400044 	movi	r5,1
   23ee4:	003f6306 	br	23c74 <__alt_data_end+0xfffe3c74>
   23ee8:	02400304 	movi	r9,12
   23eec:	014000c4 	movi	r5,3
   23ef0:	003f6006 	br	23c74 <__alt_data_end+0xfffe3c74>
   23ef4:	04000434 	movhi	r16,16
   23ef8:	0009883a 	mov	r4,zero
   23efc:	843fffc4 	addi	r16,r16,-1
   23f00:	057fffc4 	movi	r21,-1
   23f04:	0081ffc4 	movi	r2,2047
   23f08:	003f9b06 	br	23d78 <__alt_data_end+0xfffe3d78>
   23f0c:	00c00044 	movi	r3,1
   23f10:	1887c83a 	sub	r3,r3,r2
   23f14:	01000e04 	movi	r4,56
   23f18:	20c1530e 	bge	r4,r3,24468 <__divdf3+0x86c>
   23f1c:	9900004c 	andi	r4,r19,1
   23f20:	0005883a 	mov	r2,zero
   23f24:	0021883a 	mov	r16,zero
   23f28:	002b883a 	mov	r21,zero
   23f2c:	003f9206 	br	23d78 <__alt_data_end+0xfffe3d78>
   23f30:	8c012e36 	bltu	r17,r16,243ec <__divdf3+0x7f0>
   23f34:	84412c26 	beq	r16,r17,243e8 <__divdf3+0x7ec>
   23f38:	a82f883a 	mov	r23,r21
   23f3c:	18ffffc4 	addi	r3,r3,-1
   23f40:	002b883a 	mov	r21,zero
   23f44:	a004d63a 	srli	r2,r20,24
   23f48:	8822923a 	slli	r17,r17,8
   23f4c:	a028923a 	slli	r20,r20,8
   23f50:	8009883a 	mov	r4,r16
   23f54:	88acb03a 	or	r22,r17,r2
   23f58:	dd000015 	stw	r20,0(sp)
   23f5c:	b028d43a 	srli	r20,r22,16
   23f60:	d8c00215 	stw	r3,8(sp)
   23f64:	b4bfffcc 	andi	r18,r22,65535
   23f68:	a00b883a 	mov	r5,r20
   23f6c:	0022b740 	call	22b74 <__udivsi3>
   23f70:	100b883a 	mov	r5,r2
   23f74:	9009883a 	mov	r4,r18
   23f78:	1023883a 	mov	r17,r2
   23f7c:	0022c300 	call	22c30 <__mulsi3>
   23f80:	8009883a 	mov	r4,r16
   23f84:	a00b883a 	mov	r5,r20
   23f88:	1039883a 	mov	fp,r2
   23f8c:	0022bd80 	call	22bd8 <__umodsi3>
   23f90:	1004943a 	slli	r2,r2,16
   23f94:	b808d43a 	srli	r4,r23,16
   23f98:	d8c00217 	ldw	r3,8(sp)
   23f9c:	2084b03a 	or	r2,r4,r2
   23fa0:	1700062e 	bgeu	r2,fp,23fbc <__divdf3+0x3c0>
   23fa4:	1585883a 	add	r2,r2,r22
   23fa8:	893fffc4 	addi	r4,r17,-1
   23fac:	15811d36 	bltu	r2,r22,24424 <__divdf3+0x828>
   23fb0:	17011c2e 	bgeu	r2,fp,24424 <__divdf3+0x828>
   23fb4:	8c7fff84 	addi	r17,r17,-2
   23fb8:	1585883a 	add	r2,r2,r22
   23fbc:	1739c83a 	sub	fp,r2,fp
   23fc0:	a00b883a 	mov	r5,r20
   23fc4:	e009883a 	mov	r4,fp
   23fc8:	d8c00215 	stw	r3,8(sp)
   23fcc:	0022b740 	call	22b74 <__udivsi3>
   23fd0:	100b883a 	mov	r5,r2
   23fd4:	9009883a 	mov	r4,r18
   23fd8:	1021883a 	mov	r16,r2
   23fdc:	0022c300 	call	22c30 <__mulsi3>
   23fe0:	a00b883a 	mov	r5,r20
   23fe4:	e009883a 	mov	r4,fp
   23fe8:	d8800415 	stw	r2,16(sp)
   23fec:	0022bd80 	call	22bd8 <__umodsi3>
   23ff0:	1004943a 	slli	r2,r2,16
   23ff4:	da000417 	ldw	r8,16(sp)
   23ff8:	bdffffcc 	andi	r23,r23,65535
   23ffc:	b884b03a 	or	r2,r23,r2
   24000:	d8c00217 	ldw	r3,8(sp)
   24004:	1200062e 	bgeu	r2,r8,24020 <__divdf3+0x424>
   24008:	1585883a 	add	r2,r2,r22
   2400c:	813fffc4 	addi	r4,r16,-1
   24010:	15810236 	bltu	r2,r22,2441c <__divdf3+0x820>
   24014:	1201012e 	bgeu	r2,r8,2441c <__divdf3+0x820>
   24018:	843fff84 	addi	r16,r16,-2
   2401c:	1585883a 	add	r2,r2,r22
   24020:	8822943a 	slli	r17,r17,16
   24024:	d9800017 	ldw	r6,0(sp)
   24028:	1211c83a 	sub	r8,r2,r8
   2402c:	8c22b03a 	or	r17,r17,r16
   24030:	373fffcc 	andi	fp,r6,65535
   24034:	8abfffcc 	andi	r10,r17,65535
   24038:	8820d43a 	srli	r16,r17,16
   2403c:	5009883a 	mov	r4,r10
   24040:	e00b883a 	mov	r5,fp
   24044:	302ed43a 	srli	r23,r6,16
   24048:	d8c00215 	stw	r3,8(sp)
   2404c:	da000415 	stw	r8,16(sp)
   24050:	da800115 	stw	r10,4(sp)
   24054:	0022c300 	call	22c30 <__mulsi3>
   24058:	800b883a 	mov	r5,r16
   2405c:	e009883a 	mov	r4,fp
   24060:	d8800515 	stw	r2,20(sp)
   24064:	0022c300 	call	22c30 <__mulsi3>
   24068:	8009883a 	mov	r4,r16
   2406c:	b80b883a 	mov	r5,r23
   24070:	d8800315 	stw	r2,12(sp)
   24074:	0022c300 	call	22c30 <__mulsi3>
   24078:	da800117 	ldw	r10,4(sp)
   2407c:	b80b883a 	mov	r5,r23
   24080:	1021883a 	mov	r16,r2
   24084:	5009883a 	mov	r4,r10
   24088:	0022c300 	call	22c30 <__mulsi3>
   2408c:	d9c00517 	ldw	r7,20(sp)
   24090:	da400317 	ldw	r9,12(sp)
   24094:	d8c00217 	ldw	r3,8(sp)
   24098:	3808d43a 	srli	r4,r7,16
   2409c:	1245883a 	add	r2,r2,r9
   240a0:	da000417 	ldw	r8,16(sp)
   240a4:	2085883a 	add	r2,r4,r2
   240a8:	1240022e 	bgeu	r2,r9,240b4 <__divdf3+0x4b8>
   240ac:	01000074 	movhi	r4,1
   240b0:	8121883a 	add	r16,r16,r4
   240b4:	1008d43a 	srli	r4,r2,16
   240b8:	1004943a 	slli	r2,r2,16
   240bc:	39ffffcc 	andi	r7,r7,65535
   240c0:	2409883a 	add	r4,r4,r16
   240c4:	11c5883a 	add	r2,r2,r7
   240c8:	4100bb36 	bltu	r8,r4,243b8 <__divdf3+0x7bc>
   240cc:	4100d726 	beq	r8,r4,2442c <__divdf3+0x830>
   240d0:	4109c83a 	sub	r4,r8,r4
   240d4:	a8a1c83a 	sub	r16,r21,r2
   240d8:	ac2b803a 	cmpltu	r21,r21,r16
   240dc:	256bc83a 	sub	r21,r4,r21
   240e0:	b540d926 	beq	r22,r21,24448 <__divdf3+0x84c>
   240e4:	a00b883a 	mov	r5,r20
   240e8:	a809883a 	mov	r4,r21
   240ec:	d8c00215 	stw	r3,8(sp)
   240f0:	0022b740 	call	22b74 <__udivsi3>
   240f4:	100b883a 	mov	r5,r2
   240f8:	9009883a 	mov	r4,r18
   240fc:	d8800515 	stw	r2,20(sp)
   24100:	0022c300 	call	22c30 <__mulsi3>
   24104:	a809883a 	mov	r4,r21
   24108:	a00b883a 	mov	r5,r20
   2410c:	d8800415 	stw	r2,16(sp)
   24110:	0022bd80 	call	22bd8 <__umodsi3>
   24114:	1004943a 	slli	r2,r2,16
   24118:	8008d43a 	srli	r4,r16,16
   2411c:	da000417 	ldw	r8,16(sp)
   24120:	d8c00217 	ldw	r3,8(sp)
   24124:	2084b03a 	or	r2,r4,r2
   24128:	d9c00517 	ldw	r7,20(sp)
   2412c:	1200062e 	bgeu	r2,r8,24148 <__divdf3+0x54c>
   24130:	1585883a 	add	r2,r2,r22
   24134:	393fffc4 	addi	r4,r7,-1
   24138:	1580c536 	bltu	r2,r22,24450 <__divdf3+0x854>
   2413c:	1200c42e 	bgeu	r2,r8,24450 <__divdf3+0x854>
   24140:	39ffff84 	addi	r7,r7,-2
   24144:	1585883a 	add	r2,r2,r22
   24148:	122bc83a 	sub	r21,r2,r8
   2414c:	a00b883a 	mov	r5,r20
   24150:	a809883a 	mov	r4,r21
   24154:	d8c00215 	stw	r3,8(sp)
   24158:	d9c00515 	stw	r7,20(sp)
   2415c:	0022b740 	call	22b74 <__udivsi3>
   24160:	9009883a 	mov	r4,r18
   24164:	100b883a 	mov	r5,r2
   24168:	d8800415 	stw	r2,16(sp)
   2416c:	0022c300 	call	22c30 <__mulsi3>
   24170:	a809883a 	mov	r4,r21
   24174:	a00b883a 	mov	r5,r20
   24178:	1025883a 	mov	r18,r2
   2417c:	0022bd80 	call	22bd8 <__umodsi3>
   24180:	1004943a 	slli	r2,r2,16
   24184:	813fffcc 	andi	r4,r16,65535
   24188:	d8c00217 	ldw	r3,8(sp)
   2418c:	20a0b03a 	or	r16,r4,r2
   24190:	d9c00517 	ldw	r7,20(sp)
   24194:	da000417 	ldw	r8,16(sp)
   24198:	8480062e 	bgeu	r16,r18,241b4 <__divdf3+0x5b8>
   2419c:	85a1883a 	add	r16,r16,r22
   241a0:	40bfffc4 	addi	r2,r8,-1
   241a4:	8580ac36 	bltu	r16,r22,24458 <__divdf3+0x85c>
   241a8:	8480ab2e 	bgeu	r16,r18,24458 <__divdf3+0x85c>
   241ac:	423fff84 	addi	r8,r8,-2
   241b0:	85a1883a 	add	r16,r16,r22
   241b4:	3804943a 	slli	r2,r7,16
   241b8:	84a1c83a 	sub	r16,r16,r18
   241bc:	e009883a 	mov	r4,fp
   241c0:	1228b03a 	or	r20,r2,r8
   241c4:	a1ffffcc 	andi	r7,r20,65535
   241c8:	a024d43a 	srli	r18,r20,16
   241cc:	380b883a 	mov	r5,r7
   241d0:	d8c00215 	stw	r3,8(sp)
   241d4:	d9c00515 	stw	r7,20(sp)
   241d8:	0022c300 	call	22c30 <__mulsi3>
   241dc:	900b883a 	mov	r5,r18
   241e0:	e009883a 	mov	r4,fp
   241e4:	102b883a 	mov	r21,r2
   241e8:	0022c300 	call	22c30 <__mulsi3>
   241ec:	900b883a 	mov	r5,r18
   241f0:	b809883a 	mov	r4,r23
   241f4:	1039883a 	mov	fp,r2
   241f8:	0022c300 	call	22c30 <__mulsi3>
   241fc:	d9c00517 	ldw	r7,20(sp)
   24200:	b80b883a 	mov	r5,r23
   24204:	1025883a 	mov	r18,r2
   24208:	3809883a 	mov	r4,r7
   2420c:	0022c300 	call	22c30 <__mulsi3>
   24210:	a808d43a 	srli	r4,r21,16
   24214:	1705883a 	add	r2,r2,fp
   24218:	d8c00217 	ldw	r3,8(sp)
   2421c:	2085883a 	add	r2,r4,r2
   24220:	1700022e 	bgeu	r2,fp,2422c <__divdf3+0x630>
   24224:	01000074 	movhi	r4,1
   24228:	9125883a 	add	r18,r18,r4
   2422c:	1008d43a 	srli	r4,r2,16
   24230:	1004943a 	slli	r2,r2,16
   24234:	ad7fffcc 	andi	r21,r21,65535
   24238:	2489883a 	add	r4,r4,r18
   2423c:	1545883a 	add	r2,r2,r21
   24240:	81003836 	bltu	r16,r4,24324 <__divdf3+0x728>
   24244:	81003626 	beq	r16,r4,24320 <__divdf3+0x724>
   24248:	a5000054 	ori	r20,r20,1
   2424c:	1880ffc4 	addi	r2,r3,1023
   24250:	00bf2e0e 	bge	zero,r2,23f0c <__alt_data_end+0xfffe3f0c>
   24254:	a10001cc 	andi	r4,r20,7
   24258:	20000726 	beq	r4,zero,24278 <__divdf3+0x67c>
   2425c:	a10003cc 	andi	r4,r20,15
   24260:	01400104 	movi	r5,4
   24264:	21400426 	beq	r4,r5,24278 <__divdf3+0x67c>
   24268:	a149883a 	add	r4,r20,r5
   2426c:	2529803a 	cmpltu	r20,r4,r20
   24270:	8d23883a 	add	r17,r17,r20
   24274:	2029883a 	mov	r20,r4
   24278:	8900402c 	andhi	r4,r17,256
   2427c:	20000426 	beq	r4,zero,24290 <__divdf3+0x694>
   24280:	18810004 	addi	r2,r3,1024
   24284:	00ffc034 	movhi	r3,65280
   24288:	18ffffc4 	addi	r3,r3,-1
   2428c:	88e2703a 	and	r17,r17,r3
   24290:	00c1ff84 	movi	r3,2046
   24294:	18beb416 	blt	r3,r2,23d68 <__alt_data_end+0xfffe3d68>
   24298:	a028d0fa 	srli	r20,r20,3
   2429c:	882a977a 	slli	r21,r17,29
   242a0:	8820927a 	slli	r16,r17,9
   242a4:	1081ffcc 	andi	r2,r2,2047
   242a8:	ad2ab03a 	or	r21,r21,r20
   242ac:	8020d33a 	srli	r16,r16,12
   242b0:	9900004c 	andi	r4,r19,1
   242b4:	003eb006 	br	23d78 <__alt_data_end+0xfffe3d78>
   242b8:	8080022c 	andhi	r2,r16,8
   242bc:	10001226 	beq	r2,zero,24308 <__divdf3+0x70c>
   242c0:	8880022c 	andhi	r2,r17,8
   242c4:	1000101e 	bne	r2,zero,24308 <__divdf3+0x70c>
   242c8:	00800434 	movhi	r2,16
   242cc:	8c000234 	orhi	r16,r17,8
   242d0:	10bfffc4 	addi	r2,r2,-1
   242d4:	b809883a 	mov	r4,r23
   242d8:	80a0703a 	and	r16,r16,r2
   242dc:	a02b883a 	mov	r21,r20
   242e0:	003f0806 	br	23f04 <__alt_data_end+0xfffe3f04>
   242e4:	008000c4 	movi	r2,3
   242e8:	3880b126 	beq	r7,r2,245b0 <__divdf3+0x9b4>
   242ec:	00800044 	movi	r2,1
   242f0:	38805b1e 	bne	r7,r2,24460 <__divdf3+0x864>
   242f4:	e009883a 	mov	r4,fp
   242f8:	0005883a 	mov	r2,zero
   242fc:	0021883a 	mov	r16,zero
   24300:	002b883a 	mov	r21,zero
   24304:	003e9c06 	br	23d78 <__alt_data_end+0xfffe3d78>
   24308:	00800434 	movhi	r2,16
   2430c:	84000234 	orhi	r16,r16,8
   24310:	10bfffc4 	addi	r2,r2,-1
   24314:	b009883a 	mov	r4,r22
   24318:	80a0703a 	and	r16,r16,r2
   2431c:	003ef906 	br	23f04 <__alt_data_end+0xfffe3f04>
   24320:	103fca26 	beq	r2,zero,2424c <__alt_data_end+0xfffe424c>
   24324:	b421883a 	add	r16,r22,r16
   24328:	a17fffc4 	addi	r5,r20,-1
   2432c:	8580422e 	bgeu	r16,r22,24438 <__divdf3+0x83c>
   24330:	2829883a 	mov	r20,r5
   24334:	813fc41e 	bne	r16,r4,24248 <__alt_data_end+0xfffe4248>
   24338:	d9800017 	ldw	r6,0(sp)
   2433c:	30bfc21e 	bne	r6,r2,24248 <__alt_data_end+0xfffe4248>
   24340:	003fc206 	br	2424c <__alt_data_end+0xfffe424c>
   24344:	143ff604 	addi	r16,r2,-40
   24348:	8c20983a 	sll	r16,r17,r16
   2434c:	002b883a 	mov	r21,zero
   24350:	003eb406 	br	23e24 <__alt_data_end+0xfffe3e24>
   24354:	d9800215 	stw	r6,8(sp)
   24358:	d9c00515 	stw	r7,20(sp)
   2435c:	da000415 	stw	r8,16(sp)
   24360:	00259ec0 	call	259ec <__clzsi2>
   24364:	10800804 	addi	r2,r2,32
   24368:	da000417 	ldw	r8,16(sp)
   2436c:	d9c00517 	ldw	r7,20(sp)
   24370:	d9800217 	ldw	r6,8(sp)
   24374:	003ea106 	br	23dfc <__alt_data_end+0xfffe3dfc>
   24378:	147ff604 	addi	r17,r2,-40
   2437c:	3462983a 	sll	r17,r6,r17
   24380:	0029883a 	mov	r20,zero
   24384:	003ec906 	br	23eac <__alt_data_end+0xfffe3eac>
   24388:	3009883a 	mov	r4,r6
   2438c:	d9400115 	stw	r5,4(sp)
   24390:	d9800215 	stw	r6,8(sp)
   24394:	da000415 	stw	r8,16(sp)
   24398:	da400315 	stw	r9,12(sp)
   2439c:	00259ec0 	call	259ec <__clzsi2>
   243a0:	10800804 	addi	r2,r2,32
   243a4:	da400317 	ldw	r9,12(sp)
   243a8:	da000417 	ldw	r8,16(sp)
   243ac:	d9800217 	ldw	r6,8(sp)
   243b0:	d9400117 	ldw	r5,4(sp)
   243b4:	003eb306 	br	23e84 <__alt_data_end+0xfffe3e84>
   243b8:	d9800017 	ldw	r6,0(sp)
   243bc:	a9ab883a 	add	r21,r21,r6
   243c0:	a98b803a 	cmpltu	r5,r21,r6
   243c4:	2d8b883a 	add	r5,r5,r22
   243c8:	2a11883a 	add	r8,r5,r8
   243cc:	897fffc4 	addi	r5,r17,-1
   243d0:	b2000c2e 	bgeu	r22,r8,24404 <__divdf3+0x808>
   243d4:	41003f36 	bltu	r8,r4,244d4 <__divdf3+0x8d8>
   243d8:	22006c26 	beq	r4,r8,2458c <__divdf3+0x990>
   243dc:	4109c83a 	sub	r4,r8,r4
   243e0:	2823883a 	mov	r17,r5
   243e4:	003f3b06 	br	240d4 <__alt_data_end+0xfffe40d4>
   243e8:	ad3ed336 	bltu	r21,r20,23f38 <__alt_data_end+0xfffe3f38>
   243ec:	a804d07a 	srli	r2,r21,1
   243f0:	802e97fa 	slli	r23,r16,31
   243f4:	a82a97fa 	slli	r21,r21,31
   243f8:	8020d07a 	srli	r16,r16,1
   243fc:	b8aeb03a 	or	r23,r23,r2
   24400:	003ed006 	br	23f44 <__alt_data_end+0xfffe3f44>
   24404:	b23ff51e 	bne	r22,r8,243dc <__alt_data_end+0xfffe43dc>
   24408:	d9800017 	ldw	r6,0(sp)
   2440c:	a9bff12e 	bgeu	r21,r6,243d4 <__alt_data_end+0xfffe43d4>
   24410:	b109c83a 	sub	r4,r22,r4
   24414:	2823883a 	mov	r17,r5
   24418:	003f2e06 	br	240d4 <__alt_data_end+0xfffe40d4>
   2441c:	2021883a 	mov	r16,r4
   24420:	003eff06 	br	24020 <__alt_data_end+0xfffe4020>
   24424:	2023883a 	mov	r17,r4
   24428:	003ee406 	br	23fbc <__alt_data_end+0xfffe3fbc>
   2442c:	a8bfe236 	bltu	r21,r2,243b8 <__alt_data_end+0xfffe43b8>
   24430:	0009883a 	mov	r4,zero
   24434:	003f2706 	br	240d4 <__alt_data_end+0xfffe40d4>
   24438:	81002d36 	bltu	r16,r4,244f0 <__divdf3+0x8f4>
   2443c:	24005626 	beq	r4,r16,24598 <__divdf3+0x99c>
   24440:	2829883a 	mov	r20,r5
   24444:	003f8006 	br	24248 <__alt_data_end+0xfffe4248>
   24448:	053fffc4 	movi	r20,-1
   2444c:	003f7f06 	br	2424c <__alt_data_end+0xfffe424c>
   24450:	200f883a 	mov	r7,r4
   24454:	003f3c06 	br	24148 <__alt_data_end+0xfffe4148>
   24458:	1011883a 	mov	r8,r2
   2445c:	003f5506 	br	241b4 <__alt_data_end+0xfffe41b4>
   24460:	e027883a 	mov	r19,fp
   24464:	003f7906 	br	2424c <__alt_data_end+0xfffe424c>
   24468:	010007c4 	movi	r4,31
   2446c:	20c02816 	blt	r4,r3,24510 <__divdf3+0x914>
   24470:	00800804 	movi	r2,32
   24474:	10c5c83a 	sub	r2,r2,r3
   24478:	888a983a 	sll	r5,r17,r2
   2447c:	a0c8d83a 	srl	r4,r20,r3
   24480:	a084983a 	sll	r2,r20,r2
   24484:	88e2d83a 	srl	r17,r17,r3
   24488:	2906b03a 	or	r3,r5,r4
   2448c:	1004c03a 	cmpne	r2,r2,zero
   24490:	1886b03a 	or	r3,r3,r2
   24494:	188001cc 	andi	r2,r3,7
   24498:	10000726 	beq	r2,zero,244b8 <__divdf3+0x8bc>
   2449c:	188003cc 	andi	r2,r3,15
   244a0:	01000104 	movi	r4,4
   244a4:	11000426 	beq	r2,r4,244b8 <__divdf3+0x8bc>
   244a8:	1805883a 	mov	r2,r3
   244ac:	10c00104 	addi	r3,r2,4
   244b0:	1885803a 	cmpltu	r2,r3,r2
   244b4:	88a3883a 	add	r17,r17,r2
   244b8:	8880202c 	andhi	r2,r17,128
   244bc:	10002926 	beq	r2,zero,24564 <__divdf3+0x968>
   244c0:	9900004c 	andi	r4,r19,1
   244c4:	00800044 	movi	r2,1
   244c8:	0021883a 	mov	r16,zero
   244cc:	002b883a 	mov	r21,zero
   244d0:	003e2906 	br	23d78 <__alt_data_end+0xfffe3d78>
   244d4:	d9800017 	ldw	r6,0(sp)
   244d8:	8c7fff84 	addi	r17,r17,-2
   244dc:	a9ab883a 	add	r21,r21,r6
   244e0:	a98b803a 	cmpltu	r5,r21,r6
   244e4:	2d8b883a 	add	r5,r5,r22
   244e8:	2a11883a 	add	r8,r5,r8
   244ec:	003ef806 	br	240d0 <__alt_data_end+0xfffe40d0>
   244f0:	d9800017 	ldw	r6,0(sp)
   244f4:	318f883a 	add	r7,r6,r6
   244f8:	398b803a 	cmpltu	r5,r7,r6
   244fc:	2d8d883a 	add	r6,r5,r22
   24500:	81a1883a 	add	r16,r16,r6
   24504:	a17fff84 	addi	r5,r20,-2
   24508:	d9c00015 	stw	r7,0(sp)
   2450c:	003f8806 	br	24330 <__alt_data_end+0xfffe4330>
   24510:	013ff844 	movi	r4,-31
   24514:	2085c83a 	sub	r2,r4,r2
   24518:	8888d83a 	srl	r4,r17,r2
   2451c:	00800804 	movi	r2,32
   24520:	18802126 	beq	r3,r2,245a8 <__divdf3+0x9ac>
   24524:	04001004 	movi	r16,64
   24528:	80c7c83a 	sub	r3,r16,r3
   2452c:	88e0983a 	sll	r16,r17,r3
   24530:	8504b03a 	or	r2,r16,r20
   24534:	1004c03a 	cmpne	r2,r2,zero
   24538:	2084b03a 	or	r2,r4,r2
   2453c:	144001cc 	andi	r17,r2,7
   24540:	88000d1e 	bne	r17,zero,24578 <__divdf3+0x97c>
   24544:	0021883a 	mov	r16,zero
   24548:	102ad0fa 	srli	r21,r2,3
   2454c:	9900004c 	andi	r4,r19,1
   24550:	0005883a 	mov	r2,zero
   24554:	ac6ab03a 	or	r21,r21,r17
   24558:	003e0706 	br	23d78 <__alt_data_end+0xfffe3d78>
   2455c:	1007883a 	mov	r3,r2
   24560:	0023883a 	mov	r17,zero
   24564:	8820927a 	slli	r16,r17,9
   24568:	1805883a 	mov	r2,r3
   2456c:	8822977a 	slli	r17,r17,29
   24570:	8020d33a 	srli	r16,r16,12
   24574:	003ff406 	br	24548 <__alt_data_end+0xfffe4548>
   24578:	10c003cc 	andi	r3,r2,15
   2457c:	01000104 	movi	r4,4
   24580:	193ff626 	beq	r3,r4,2455c <__alt_data_end+0xfffe455c>
   24584:	0023883a 	mov	r17,zero
   24588:	003fc806 	br	244ac <__alt_data_end+0xfffe44ac>
   2458c:	a8bfd136 	bltu	r21,r2,244d4 <__alt_data_end+0xfffe44d4>
   24590:	2823883a 	mov	r17,r5
   24594:	003fa606 	br	24430 <__alt_data_end+0xfffe4430>
   24598:	d9800017 	ldw	r6,0(sp)
   2459c:	30bfd436 	bltu	r6,r2,244f0 <__alt_data_end+0xfffe44f0>
   245a0:	2829883a 	mov	r20,r5
   245a4:	003f6406 	br	24338 <__alt_data_end+0xfffe4338>
   245a8:	0021883a 	mov	r16,zero
   245ac:	003fe006 	br	24530 <__alt_data_end+0xfffe4530>
   245b0:	00800434 	movhi	r2,16
   245b4:	8c000234 	orhi	r16,r17,8
   245b8:	10bfffc4 	addi	r2,r2,-1
   245bc:	e009883a 	mov	r4,fp
   245c0:	80a0703a 	and	r16,r16,r2
   245c4:	a02b883a 	mov	r21,r20
   245c8:	003e4e06 	br	23f04 <__alt_data_end+0xfffe3f04>

000245cc <__muldf3>:
   245cc:	deffee04 	addi	sp,sp,-72
   245d0:	dd000c15 	stw	r20,48(sp)
   245d4:	2828d53a 	srli	r20,r5,20
   245d8:	ddc00f15 	stw	r23,60(sp)
   245dc:	282ed7fa 	srli	r23,r5,31
   245e0:	dc000815 	stw	r16,32(sp)
   245e4:	04000434 	movhi	r16,16
   245e8:	dcc00b15 	stw	r19,44(sp)
   245ec:	843fffc4 	addi	r16,r16,-1
   245f0:	dfc01115 	stw	ra,68(sp)
   245f4:	df001015 	stw	fp,64(sp)
   245f8:	dd800e15 	stw	r22,56(sp)
   245fc:	dd400d15 	stw	r21,52(sp)
   24600:	dc800a15 	stw	r18,40(sp)
   24604:	dc400915 	stw	r17,36(sp)
   24608:	a501ffcc 	andi	r20,r20,2047
   2460c:	2c20703a 	and	r16,r5,r16
   24610:	b827883a 	mov	r19,r23
   24614:	ba403fcc 	andi	r9,r23,255
   24618:	a0006026 	beq	r20,zero,2479c <__muldf3+0x1d0>
   2461c:	0081ffc4 	movi	r2,2047
   24620:	202d883a 	mov	r22,r4
   24624:	a0803626 	beq	r20,r2,24700 <__muldf3+0x134>
   24628:	84000434 	orhi	r16,r16,16
   2462c:	200ad77a 	srli	r5,r4,29
   24630:	800490fa 	slli	r2,r16,3
   24634:	202c90fa 	slli	r22,r4,3
   24638:	a53f0044 	addi	r20,r20,-1023
   2463c:	28a0b03a 	or	r16,r5,r2
   24640:	002b883a 	mov	r21,zero
   24644:	000b883a 	mov	r5,zero
   24648:	3804d53a 	srli	r2,r7,20
   2464c:	3838d7fa 	srli	fp,r7,31
   24650:	04400434 	movhi	r17,16
   24654:	8c7fffc4 	addi	r17,r17,-1
   24658:	1081ffcc 	andi	r2,r2,2047
   2465c:	3025883a 	mov	r18,r6
   24660:	3c62703a 	and	r17,r7,r17
   24664:	e2803fcc 	andi	r10,fp,255
   24668:	10006d26 	beq	r2,zero,24820 <__muldf3+0x254>
   2466c:	00c1ffc4 	movi	r3,2047
   24670:	10c06526 	beq	r2,r3,24808 <__muldf3+0x23c>
   24674:	8c400434 	orhi	r17,r17,16
   24678:	300ed77a 	srli	r7,r6,29
   2467c:	880690fa 	slli	r3,r17,3
   24680:	302490fa 	slli	r18,r6,3
   24684:	10bf0044 	addi	r2,r2,-1023
   24688:	38e2b03a 	or	r17,r7,r3
   2468c:	000f883a 	mov	r7,zero
   24690:	a087883a 	add	r3,r20,r2
   24694:	010003c4 	movi	r4,15
   24698:	3d44b03a 	or	r2,r7,r21
   2469c:	e5ccf03a 	xor	r6,fp,r23
   246a0:	1a000044 	addi	r8,r3,1
   246a4:	20809b36 	bltu	r4,r2,24914 <__muldf3+0x348>
   246a8:	100490ba 	slli	r2,r2,2
   246ac:	010000b4 	movhi	r4,2
   246b0:	2111b004 	addi	r4,r4,18112
   246b4:	1105883a 	add	r2,r2,r4
   246b8:	10800017 	ldw	r2,0(r2)
   246bc:	1000683a 	jmp	r2
   246c0:	00024914 	movui	zero,2340
   246c4:	00024720 	cmpeqi	zero,zero,2332
   246c8:	00024720 	cmpeqi	zero,zero,2332
   246cc:	0002471c 	xori	zero,zero,2332
   246d0:	000248f0 	cmpltui	zero,zero,2339
   246d4:	000248f0 	cmpltui	zero,zero,2339
   246d8:	000248d8 	cmpnei	zero,zero,2339
   246dc:	0002471c 	xori	zero,zero,2332
   246e0:	000248f0 	cmpltui	zero,zero,2339
   246e4:	000248d8 	cmpnei	zero,zero,2339
   246e8:	000248f0 	cmpltui	zero,zero,2339
   246ec:	0002471c 	xori	zero,zero,2332
   246f0:	00024900 	call	2490 <__alt_mem_onchip_memory2_0-0x1db70>
   246f4:	00024900 	call	2490 <__alt_mem_onchip_memory2_0-0x1db70>
   246f8:	00024900 	call	2490 <__alt_mem_onchip_memory2_0-0x1db70>
   246fc:	00024c60 	cmpeqi	zero,zero,2353
   24700:	2404b03a 	or	r2,r4,r16
   24704:	1000711e 	bne	r2,zero,248cc <__muldf3+0x300>
   24708:	05400204 	movi	r21,8
   2470c:	0021883a 	mov	r16,zero
   24710:	002d883a 	mov	r22,zero
   24714:	01400084 	movi	r5,2
   24718:	003fcb06 	br	24648 <__alt_data_end+0xfffe4648>
   2471c:	500d883a 	mov	r6,r10
   24720:	00800084 	movi	r2,2
   24724:	38805926 	beq	r7,r2,2488c <__muldf3+0x2c0>
   24728:	008000c4 	movi	r2,3
   2472c:	3881bb26 	beq	r7,r2,24e1c <__muldf3+0x850>
   24730:	00800044 	movi	r2,1
   24734:	3881961e 	bne	r7,r2,24d90 <__muldf3+0x7c4>
   24738:	3027883a 	mov	r19,r6
   2473c:	0005883a 	mov	r2,zero
   24740:	0021883a 	mov	r16,zero
   24744:	002d883a 	mov	r22,zero
   24748:	1004953a 	slli	r2,r2,20
   2474c:	98c03fcc 	andi	r3,r19,255
   24750:	04400434 	movhi	r17,16
   24754:	8c7fffc4 	addi	r17,r17,-1
   24758:	180697fa 	slli	r3,r3,31
   2475c:	8460703a 	and	r16,r16,r17
   24760:	80a0b03a 	or	r16,r16,r2
   24764:	80c6b03a 	or	r3,r16,r3
   24768:	b005883a 	mov	r2,r22
   2476c:	dfc01117 	ldw	ra,68(sp)
   24770:	df001017 	ldw	fp,64(sp)
   24774:	ddc00f17 	ldw	r23,60(sp)
   24778:	dd800e17 	ldw	r22,56(sp)
   2477c:	dd400d17 	ldw	r21,52(sp)
   24780:	dd000c17 	ldw	r20,48(sp)
   24784:	dcc00b17 	ldw	r19,44(sp)
   24788:	dc800a17 	ldw	r18,40(sp)
   2478c:	dc400917 	ldw	r17,36(sp)
   24790:	dc000817 	ldw	r16,32(sp)
   24794:	dec01204 	addi	sp,sp,72
   24798:	f800283a 	ret
   2479c:	2404b03a 	or	r2,r4,r16
   247a0:	202b883a 	mov	r21,r4
   247a4:	10004426 	beq	r2,zero,248b8 <__muldf3+0x2ec>
   247a8:	80015126 	beq	r16,zero,24cf0 <__muldf3+0x724>
   247ac:	8009883a 	mov	r4,r16
   247b0:	d9800715 	stw	r6,28(sp)
   247b4:	d9c00215 	stw	r7,8(sp)
   247b8:	da400415 	stw	r9,16(sp)
   247bc:	00259ec0 	call	259ec <__clzsi2>
   247c0:	d9800717 	ldw	r6,28(sp)
   247c4:	d9c00217 	ldw	r7,8(sp)
   247c8:	da400417 	ldw	r9,16(sp)
   247cc:	113ffd44 	addi	r4,r2,-11
   247d0:	00c00704 	movi	r3,28
   247d4:	19014216 	blt	r3,r4,24ce0 <__muldf3+0x714>
   247d8:	00c00744 	movi	r3,29
   247dc:	15bffe04 	addi	r22,r2,-8
   247e0:	1907c83a 	sub	r3,r3,r4
   247e4:	85a0983a 	sll	r16,r16,r22
   247e8:	a8c6d83a 	srl	r3,r21,r3
   247ec:	adac983a 	sll	r22,r21,r22
   247f0:	1c20b03a 	or	r16,r3,r16
   247f4:	1080fcc4 	addi	r2,r2,1011
   247f8:	00a9c83a 	sub	r20,zero,r2
   247fc:	002b883a 	mov	r21,zero
   24800:	000b883a 	mov	r5,zero
   24804:	003f9006 	br	24648 <__alt_data_end+0xfffe4648>
   24808:	3446b03a 	or	r3,r6,r17
   2480c:	1800281e 	bne	r3,zero,248b0 <__muldf3+0x2e4>
   24810:	0023883a 	mov	r17,zero
   24814:	0025883a 	mov	r18,zero
   24818:	01c00084 	movi	r7,2
   2481c:	003f9c06 	br	24690 <__alt_data_end+0xfffe4690>
   24820:	3446b03a 	or	r3,r6,r17
   24824:	18001e26 	beq	r3,zero,248a0 <__muldf3+0x2d4>
   24828:	88012126 	beq	r17,zero,24cb0 <__muldf3+0x6e4>
   2482c:	8809883a 	mov	r4,r17
   24830:	d9400215 	stw	r5,8(sp)
   24834:	d9800715 	stw	r6,28(sp)
   24838:	da400415 	stw	r9,16(sp)
   2483c:	da800315 	stw	r10,12(sp)
   24840:	00259ec0 	call	259ec <__clzsi2>
   24844:	d9400217 	ldw	r5,8(sp)
   24848:	d9800717 	ldw	r6,28(sp)
   2484c:	da400417 	ldw	r9,16(sp)
   24850:	da800317 	ldw	r10,12(sp)
   24854:	113ffd44 	addi	r4,r2,-11
   24858:	00c00704 	movi	r3,28
   2485c:	19011016 	blt	r3,r4,24ca0 <__muldf3+0x6d4>
   24860:	00c00744 	movi	r3,29
   24864:	14bffe04 	addi	r18,r2,-8
   24868:	1907c83a 	sub	r3,r3,r4
   2486c:	8ca2983a 	sll	r17,r17,r18
   24870:	30c6d83a 	srl	r3,r6,r3
   24874:	34a4983a 	sll	r18,r6,r18
   24878:	1c62b03a 	or	r17,r3,r17
   2487c:	1080fcc4 	addi	r2,r2,1011
   24880:	0085c83a 	sub	r2,zero,r2
   24884:	000f883a 	mov	r7,zero
   24888:	003f8106 	br	24690 <__alt_data_end+0xfffe4690>
   2488c:	3027883a 	mov	r19,r6
   24890:	0081ffc4 	movi	r2,2047
   24894:	0021883a 	mov	r16,zero
   24898:	002d883a 	mov	r22,zero
   2489c:	003faa06 	br	24748 <__alt_data_end+0xfffe4748>
   248a0:	0023883a 	mov	r17,zero
   248a4:	0025883a 	mov	r18,zero
   248a8:	01c00044 	movi	r7,1
   248ac:	003f7806 	br	24690 <__alt_data_end+0xfffe4690>
   248b0:	01c000c4 	movi	r7,3
   248b4:	003f7606 	br	24690 <__alt_data_end+0xfffe4690>
   248b8:	05400104 	movi	r21,4
   248bc:	0021883a 	mov	r16,zero
   248c0:	002d883a 	mov	r22,zero
   248c4:	01400044 	movi	r5,1
   248c8:	003f5f06 	br	24648 <__alt_data_end+0xfffe4648>
   248cc:	05400304 	movi	r21,12
   248d0:	014000c4 	movi	r5,3
   248d4:	003f5c06 	br	24648 <__alt_data_end+0xfffe4648>
   248d8:	04000434 	movhi	r16,16
   248dc:	0027883a 	mov	r19,zero
   248e0:	843fffc4 	addi	r16,r16,-1
   248e4:	05bfffc4 	movi	r22,-1
   248e8:	0081ffc4 	movi	r2,2047
   248ec:	003f9606 	br	24748 <__alt_data_end+0xfffe4748>
   248f0:	8023883a 	mov	r17,r16
   248f4:	b025883a 	mov	r18,r22
   248f8:	280f883a 	mov	r7,r5
   248fc:	003f8806 	br	24720 <__alt_data_end+0xfffe4720>
   24900:	8023883a 	mov	r17,r16
   24904:	b025883a 	mov	r18,r22
   24908:	480d883a 	mov	r6,r9
   2490c:	280f883a 	mov	r7,r5
   24910:	003f8306 	br	24720 <__alt_data_end+0xfffe4720>
   24914:	b026d43a 	srli	r19,r22,16
   24918:	902ed43a 	srli	r23,r18,16
   2491c:	b5bfffcc 	andi	r22,r22,65535
   24920:	94bfffcc 	andi	r18,r18,65535
   24924:	b00b883a 	mov	r5,r22
   24928:	9009883a 	mov	r4,r18
   2492c:	d8c00515 	stw	r3,20(sp)
   24930:	d9800715 	stw	r6,28(sp)
   24934:	da000615 	stw	r8,24(sp)
   24938:	0022c300 	call	22c30 <__mulsi3>
   2493c:	980b883a 	mov	r5,r19
   24940:	9009883a 	mov	r4,r18
   24944:	1029883a 	mov	r20,r2
   24948:	0022c300 	call	22c30 <__mulsi3>
   2494c:	b80b883a 	mov	r5,r23
   24950:	9809883a 	mov	r4,r19
   24954:	102b883a 	mov	r21,r2
   24958:	0022c300 	call	22c30 <__mulsi3>
   2495c:	b809883a 	mov	r4,r23
   24960:	b00b883a 	mov	r5,r22
   24964:	1039883a 	mov	fp,r2
   24968:	0022c300 	call	22c30 <__mulsi3>
   2496c:	a008d43a 	srli	r4,r20,16
   24970:	1545883a 	add	r2,r2,r21
   24974:	d8c00517 	ldw	r3,20(sp)
   24978:	2085883a 	add	r2,r4,r2
   2497c:	d9800717 	ldw	r6,28(sp)
   24980:	da000617 	ldw	r8,24(sp)
   24984:	1540022e 	bgeu	r2,r21,24990 <__muldf3+0x3c4>
   24988:	01000074 	movhi	r4,1
   2498c:	e139883a 	add	fp,fp,r4
   24990:	100e943a 	slli	r7,r2,16
   24994:	1004d43a 	srli	r2,r2,16
   24998:	882ad43a 	srli	r21,r17,16
   2499c:	a53fffcc 	andi	r20,r20,65535
   249a0:	8c7fffcc 	andi	r17,r17,65535
   249a4:	3d29883a 	add	r20,r7,r20
   249a8:	b00b883a 	mov	r5,r22
   249ac:	8809883a 	mov	r4,r17
   249b0:	d8c00515 	stw	r3,20(sp)
   249b4:	d9800715 	stw	r6,28(sp)
   249b8:	da000615 	stw	r8,24(sp)
   249bc:	dd000115 	stw	r20,4(sp)
   249c0:	d8800015 	stw	r2,0(sp)
   249c4:	0022c300 	call	22c30 <__mulsi3>
   249c8:	980b883a 	mov	r5,r19
   249cc:	8809883a 	mov	r4,r17
   249d0:	d8800215 	stw	r2,8(sp)
   249d4:	0022c300 	call	22c30 <__mulsi3>
   249d8:	9809883a 	mov	r4,r19
   249dc:	a80b883a 	mov	r5,r21
   249e0:	1029883a 	mov	r20,r2
   249e4:	0022c300 	call	22c30 <__mulsi3>
   249e8:	b00b883a 	mov	r5,r22
   249ec:	a809883a 	mov	r4,r21
   249f0:	d8800415 	stw	r2,16(sp)
   249f4:	0022c300 	call	22c30 <__mulsi3>
   249f8:	d9c00217 	ldw	r7,8(sp)
   249fc:	1505883a 	add	r2,r2,r20
   24a00:	d8c00517 	ldw	r3,20(sp)
   24a04:	3826d43a 	srli	r19,r7,16
   24a08:	d9800717 	ldw	r6,28(sp)
   24a0c:	da000617 	ldw	r8,24(sp)
   24a10:	9885883a 	add	r2,r19,r2
   24a14:	da400417 	ldw	r9,16(sp)
   24a18:	1500022e 	bgeu	r2,r20,24a24 <__muldf3+0x458>
   24a1c:	01000074 	movhi	r4,1
   24a20:	4913883a 	add	r9,r9,r4
   24a24:	1028d43a 	srli	r20,r2,16
   24a28:	1004943a 	slli	r2,r2,16
   24a2c:	802cd43a 	srli	r22,r16,16
   24a30:	843fffcc 	andi	r16,r16,65535
   24a34:	3cffffcc 	andi	r19,r7,65535
   24a38:	9009883a 	mov	r4,r18
   24a3c:	800b883a 	mov	r5,r16
   24a40:	a269883a 	add	r20,r20,r9
   24a44:	d8c00515 	stw	r3,20(sp)
   24a48:	d9800715 	stw	r6,28(sp)
   24a4c:	da000615 	stw	r8,24(sp)
   24a50:	14e7883a 	add	r19,r2,r19
   24a54:	0022c300 	call	22c30 <__mulsi3>
   24a58:	9009883a 	mov	r4,r18
   24a5c:	b00b883a 	mov	r5,r22
   24a60:	d8800315 	stw	r2,12(sp)
   24a64:	0022c300 	call	22c30 <__mulsi3>
   24a68:	b809883a 	mov	r4,r23
   24a6c:	b00b883a 	mov	r5,r22
   24a70:	d8800215 	stw	r2,8(sp)
   24a74:	0022c300 	call	22c30 <__mulsi3>
   24a78:	b80b883a 	mov	r5,r23
   24a7c:	8009883a 	mov	r4,r16
   24a80:	d8800415 	stw	r2,16(sp)
   24a84:	0022c300 	call	22c30 <__mulsi3>
   24a88:	da800317 	ldw	r10,12(sp)
   24a8c:	d9c00217 	ldw	r7,8(sp)
   24a90:	d9000017 	ldw	r4,0(sp)
   24a94:	502ed43a 	srli	r23,r10,16
   24a98:	11c5883a 	add	r2,r2,r7
   24a9c:	24e5883a 	add	r18,r4,r19
   24aa0:	b885883a 	add	r2,r23,r2
   24aa4:	d8c00517 	ldw	r3,20(sp)
   24aa8:	d9800717 	ldw	r6,28(sp)
   24aac:	da000617 	ldw	r8,24(sp)
   24ab0:	da400417 	ldw	r9,16(sp)
   24ab4:	11c0022e 	bgeu	r2,r7,24ac0 <__muldf3+0x4f4>
   24ab8:	01000074 	movhi	r4,1
   24abc:	4913883a 	add	r9,r9,r4
   24ac0:	100ed43a 	srli	r7,r2,16
   24ac4:	1004943a 	slli	r2,r2,16
   24ac8:	55ffffcc 	andi	r23,r10,65535
   24acc:	3a53883a 	add	r9,r7,r9
   24ad0:	8809883a 	mov	r4,r17
   24ad4:	800b883a 	mov	r5,r16
   24ad8:	d8c00515 	stw	r3,20(sp)
   24adc:	d9800715 	stw	r6,28(sp)
   24ae0:	da000615 	stw	r8,24(sp)
   24ae4:	da400415 	stw	r9,16(sp)
   24ae8:	15ef883a 	add	r23,r2,r23
   24aec:	0022c300 	call	22c30 <__mulsi3>
   24af0:	8809883a 	mov	r4,r17
   24af4:	b00b883a 	mov	r5,r22
   24af8:	d8800215 	stw	r2,8(sp)
   24afc:	0022c300 	call	22c30 <__mulsi3>
   24b00:	b00b883a 	mov	r5,r22
   24b04:	a809883a 	mov	r4,r21
   24b08:	d8800315 	stw	r2,12(sp)
   24b0c:	0022c300 	call	22c30 <__mulsi3>
   24b10:	8009883a 	mov	r4,r16
   24b14:	a80b883a 	mov	r5,r21
   24b18:	1023883a 	mov	r17,r2
   24b1c:	0022c300 	call	22c30 <__mulsi3>
   24b20:	d9c00217 	ldw	r7,8(sp)
   24b24:	da800317 	ldw	r10,12(sp)
   24b28:	d8c00517 	ldw	r3,20(sp)
   24b2c:	3808d43a 	srli	r4,r7,16
   24b30:	1285883a 	add	r2,r2,r10
   24b34:	d9800717 	ldw	r6,28(sp)
   24b38:	2085883a 	add	r2,r4,r2
   24b3c:	da000617 	ldw	r8,24(sp)
   24b40:	da400417 	ldw	r9,16(sp)
   24b44:	1280022e 	bgeu	r2,r10,24b50 <__muldf3+0x584>
   24b48:	01000074 	movhi	r4,1
   24b4c:	8923883a 	add	r17,r17,r4
   24b50:	1008943a 	slli	r4,r2,16
   24b54:	39ffffcc 	andi	r7,r7,65535
   24b58:	e4b9883a 	add	fp,fp,r18
   24b5c:	21cf883a 	add	r7,r4,r7
   24b60:	e4e7803a 	cmpltu	r19,fp,r19
   24b64:	3d0f883a 	add	r7,r7,r20
   24b68:	bf39883a 	add	fp,r23,fp
   24b6c:	99c9883a 	add	r4,r19,r7
   24b70:	e5ef803a 	cmpltu	r23,fp,r23
   24b74:	490b883a 	add	r5,r9,r4
   24b78:	1004d43a 	srli	r2,r2,16
   24b7c:	b965883a 	add	r18,r23,r5
   24b80:	24c9803a 	cmpltu	r4,r4,r19
   24b84:	3d29803a 	cmpltu	r20,r7,r20
   24b88:	a128b03a 	or	r20,r20,r4
   24b8c:	95ef803a 	cmpltu	r23,r18,r23
   24b90:	2a53803a 	cmpltu	r9,r5,r9
   24b94:	a0a9883a 	add	r20,r20,r2
   24b98:	4deeb03a 	or	r23,r9,r23
   24b9c:	a5ef883a 	add	r23,r20,r23
   24ba0:	bc63883a 	add	r17,r23,r17
   24ba4:	e004927a 	slli	r2,fp,9
   24ba8:	d9000117 	ldw	r4,4(sp)
   24bac:	882e927a 	slli	r23,r17,9
   24bb0:	9022d5fa 	srli	r17,r18,23
   24bb4:	e038d5fa 	srli	fp,fp,23
   24bb8:	1104b03a 	or	r2,r2,r4
   24bbc:	9024927a 	slli	r18,r18,9
   24bc0:	1004c03a 	cmpne	r2,r2,zero
   24bc4:	bc62b03a 	or	r17,r23,r17
   24bc8:	1738b03a 	or	fp,r2,fp
   24bcc:	8880402c 	andhi	r2,r17,256
   24bd0:	e4a4b03a 	or	r18,fp,r18
   24bd4:	10000726 	beq	r2,zero,24bf4 <__muldf3+0x628>
   24bd8:	9006d07a 	srli	r3,r18,1
   24bdc:	880497fa 	slli	r2,r17,31
   24be0:	9480004c 	andi	r18,r18,1
   24be4:	8822d07a 	srli	r17,r17,1
   24be8:	1ca4b03a 	or	r18,r3,r18
   24bec:	14a4b03a 	or	r18,r2,r18
   24bf0:	4007883a 	mov	r3,r8
   24bf4:	1880ffc4 	addi	r2,r3,1023
   24bf8:	0080460e 	bge	zero,r2,24d14 <__muldf3+0x748>
   24bfc:	910001cc 	andi	r4,r18,7
   24c00:	20000726 	beq	r4,zero,24c20 <__muldf3+0x654>
   24c04:	910003cc 	andi	r4,r18,15
   24c08:	01400104 	movi	r5,4
   24c0c:	21400426 	beq	r4,r5,24c20 <__muldf3+0x654>
   24c10:	9149883a 	add	r4,r18,r5
   24c14:	24a5803a 	cmpltu	r18,r4,r18
   24c18:	8ca3883a 	add	r17,r17,r18
   24c1c:	2025883a 	mov	r18,r4
   24c20:	8900402c 	andhi	r4,r17,256
   24c24:	20000426 	beq	r4,zero,24c38 <__muldf3+0x66c>
   24c28:	18810004 	addi	r2,r3,1024
   24c2c:	00ffc034 	movhi	r3,65280
   24c30:	18ffffc4 	addi	r3,r3,-1
   24c34:	88e2703a 	and	r17,r17,r3
   24c38:	00c1ff84 	movi	r3,2046
   24c3c:	18bf1316 	blt	r3,r2,2488c <__alt_data_end+0xfffe488c>
   24c40:	882c977a 	slli	r22,r17,29
   24c44:	9024d0fa 	srli	r18,r18,3
   24c48:	8822927a 	slli	r17,r17,9
   24c4c:	1081ffcc 	andi	r2,r2,2047
   24c50:	b4acb03a 	or	r22,r22,r18
   24c54:	8820d33a 	srli	r16,r17,12
   24c58:	3027883a 	mov	r19,r6
   24c5c:	003eba06 	br	24748 <__alt_data_end+0xfffe4748>
   24c60:	8080022c 	andhi	r2,r16,8
   24c64:	10000926 	beq	r2,zero,24c8c <__muldf3+0x6c0>
   24c68:	8880022c 	andhi	r2,r17,8
   24c6c:	1000071e 	bne	r2,zero,24c8c <__muldf3+0x6c0>
   24c70:	00800434 	movhi	r2,16
   24c74:	8c000234 	orhi	r16,r17,8
   24c78:	10bfffc4 	addi	r2,r2,-1
   24c7c:	e027883a 	mov	r19,fp
   24c80:	80a0703a 	and	r16,r16,r2
   24c84:	902d883a 	mov	r22,r18
   24c88:	003f1706 	br	248e8 <__alt_data_end+0xfffe48e8>
   24c8c:	00800434 	movhi	r2,16
   24c90:	84000234 	orhi	r16,r16,8
   24c94:	10bfffc4 	addi	r2,r2,-1
   24c98:	80a0703a 	and	r16,r16,r2
   24c9c:	003f1206 	br	248e8 <__alt_data_end+0xfffe48e8>
   24ca0:	147ff604 	addi	r17,r2,-40
   24ca4:	3462983a 	sll	r17,r6,r17
   24ca8:	0025883a 	mov	r18,zero
   24cac:	003ef306 	br	2487c <__alt_data_end+0xfffe487c>
   24cb0:	3009883a 	mov	r4,r6
   24cb4:	d9400215 	stw	r5,8(sp)
   24cb8:	d9800715 	stw	r6,28(sp)
   24cbc:	da400415 	stw	r9,16(sp)
   24cc0:	da800315 	stw	r10,12(sp)
   24cc4:	00259ec0 	call	259ec <__clzsi2>
   24cc8:	10800804 	addi	r2,r2,32
   24ccc:	da800317 	ldw	r10,12(sp)
   24cd0:	da400417 	ldw	r9,16(sp)
   24cd4:	d9800717 	ldw	r6,28(sp)
   24cd8:	d9400217 	ldw	r5,8(sp)
   24cdc:	003edd06 	br	24854 <__alt_data_end+0xfffe4854>
   24ce0:	143ff604 	addi	r16,r2,-40
   24ce4:	ac20983a 	sll	r16,r21,r16
   24ce8:	002d883a 	mov	r22,zero
   24cec:	003ec106 	br	247f4 <__alt_data_end+0xfffe47f4>
   24cf0:	d9800715 	stw	r6,28(sp)
   24cf4:	d9c00215 	stw	r7,8(sp)
   24cf8:	da400415 	stw	r9,16(sp)
   24cfc:	00259ec0 	call	259ec <__clzsi2>
   24d00:	10800804 	addi	r2,r2,32
   24d04:	da400417 	ldw	r9,16(sp)
   24d08:	d9c00217 	ldw	r7,8(sp)
   24d0c:	d9800717 	ldw	r6,28(sp)
   24d10:	003eae06 	br	247cc <__alt_data_end+0xfffe47cc>
   24d14:	00c00044 	movi	r3,1
   24d18:	1887c83a 	sub	r3,r3,r2
   24d1c:	01000e04 	movi	r4,56
   24d20:	20fe8516 	blt	r4,r3,24738 <__alt_data_end+0xfffe4738>
   24d24:	010007c4 	movi	r4,31
   24d28:	20c01b16 	blt	r4,r3,24d98 <__muldf3+0x7cc>
   24d2c:	00800804 	movi	r2,32
   24d30:	10c5c83a 	sub	r2,r2,r3
   24d34:	888a983a 	sll	r5,r17,r2
   24d38:	90c8d83a 	srl	r4,r18,r3
   24d3c:	9084983a 	sll	r2,r18,r2
   24d40:	88e2d83a 	srl	r17,r17,r3
   24d44:	2906b03a 	or	r3,r5,r4
   24d48:	1004c03a 	cmpne	r2,r2,zero
   24d4c:	1886b03a 	or	r3,r3,r2
   24d50:	188001cc 	andi	r2,r3,7
   24d54:	10000726 	beq	r2,zero,24d74 <__muldf3+0x7a8>
   24d58:	188003cc 	andi	r2,r3,15
   24d5c:	01000104 	movi	r4,4
   24d60:	11000426 	beq	r2,r4,24d74 <__muldf3+0x7a8>
   24d64:	1805883a 	mov	r2,r3
   24d68:	10c00104 	addi	r3,r2,4
   24d6c:	1885803a 	cmpltu	r2,r3,r2
   24d70:	88a3883a 	add	r17,r17,r2
   24d74:	8880202c 	andhi	r2,r17,128
   24d78:	10001c26 	beq	r2,zero,24dec <__muldf3+0x820>
   24d7c:	3027883a 	mov	r19,r6
   24d80:	00800044 	movi	r2,1
   24d84:	0021883a 	mov	r16,zero
   24d88:	002d883a 	mov	r22,zero
   24d8c:	003e6e06 	br	24748 <__alt_data_end+0xfffe4748>
   24d90:	4007883a 	mov	r3,r8
   24d94:	003f9706 	br	24bf4 <__alt_data_end+0xfffe4bf4>
   24d98:	017ff844 	movi	r5,-31
   24d9c:	2885c83a 	sub	r2,r5,r2
   24da0:	888ad83a 	srl	r5,r17,r2
   24da4:	00800804 	movi	r2,32
   24da8:	18801a26 	beq	r3,r2,24e14 <__muldf3+0x848>
   24dac:	01001004 	movi	r4,64
   24db0:	20c7c83a 	sub	r3,r4,r3
   24db4:	88e2983a 	sll	r17,r17,r3
   24db8:	8ca4b03a 	or	r18,r17,r18
   24dbc:	9004c03a 	cmpne	r2,r18,zero
   24dc0:	2884b03a 	or	r2,r5,r2
   24dc4:	144001cc 	andi	r17,r2,7
   24dc8:	88000d1e 	bne	r17,zero,24e00 <__muldf3+0x834>
   24dcc:	0021883a 	mov	r16,zero
   24dd0:	102cd0fa 	srli	r22,r2,3
   24dd4:	3027883a 	mov	r19,r6
   24dd8:	0005883a 	mov	r2,zero
   24ddc:	b46cb03a 	or	r22,r22,r17
   24de0:	003e5906 	br	24748 <__alt_data_end+0xfffe4748>
   24de4:	1007883a 	mov	r3,r2
   24de8:	0023883a 	mov	r17,zero
   24dec:	8820927a 	slli	r16,r17,9
   24df0:	1805883a 	mov	r2,r3
   24df4:	8822977a 	slli	r17,r17,29
   24df8:	8020d33a 	srli	r16,r16,12
   24dfc:	003ff406 	br	24dd0 <__alt_data_end+0xfffe4dd0>
   24e00:	10c003cc 	andi	r3,r2,15
   24e04:	01000104 	movi	r4,4
   24e08:	193ff626 	beq	r3,r4,24de4 <__alt_data_end+0xfffe4de4>
   24e0c:	0023883a 	mov	r17,zero
   24e10:	003fd506 	br	24d68 <__alt_data_end+0xfffe4d68>
   24e14:	0023883a 	mov	r17,zero
   24e18:	003fe706 	br	24db8 <__alt_data_end+0xfffe4db8>
   24e1c:	00800434 	movhi	r2,16
   24e20:	8c000234 	orhi	r16,r17,8
   24e24:	10bfffc4 	addi	r2,r2,-1
   24e28:	3027883a 	mov	r19,r6
   24e2c:	80a0703a 	and	r16,r16,r2
   24e30:	902d883a 	mov	r22,r18
   24e34:	003eac06 	br	248e8 <__alt_data_end+0xfffe48e8>

00024e38 <__subdf3>:
   24e38:	02000434 	movhi	r8,16
   24e3c:	423fffc4 	addi	r8,r8,-1
   24e40:	defffb04 	addi	sp,sp,-20
   24e44:	2a14703a 	and	r10,r5,r8
   24e48:	3812d53a 	srli	r9,r7,20
   24e4c:	3a10703a 	and	r8,r7,r8
   24e50:	2006d77a 	srli	r3,r4,29
   24e54:	3004d77a 	srli	r2,r6,29
   24e58:	dc000015 	stw	r16,0(sp)
   24e5c:	501490fa 	slli	r10,r10,3
   24e60:	2820d53a 	srli	r16,r5,20
   24e64:	401090fa 	slli	r8,r8,3
   24e68:	dc800215 	stw	r18,8(sp)
   24e6c:	dc400115 	stw	r17,4(sp)
   24e70:	dfc00415 	stw	ra,16(sp)
   24e74:	202290fa 	slli	r17,r4,3
   24e78:	dcc00315 	stw	r19,12(sp)
   24e7c:	4a41ffcc 	andi	r9,r9,2047
   24e80:	0101ffc4 	movi	r4,2047
   24e84:	2824d7fa 	srli	r18,r5,31
   24e88:	8401ffcc 	andi	r16,r16,2047
   24e8c:	50c6b03a 	or	r3,r10,r3
   24e90:	380ed7fa 	srli	r7,r7,31
   24e94:	408ab03a 	or	r5,r8,r2
   24e98:	300c90fa 	slli	r6,r6,3
   24e9c:	49009626 	beq	r9,r4,250f8 <__subdf3+0x2c0>
   24ea0:	39c0005c 	xori	r7,r7,1
   24ea4:	8245c83a 	sub	r2,r16,r9
   24ea8:	3c807426 	beq	r7,r18,2507c <__subdf3+0x244>
   24eac:	0080af0e 	bge	zero,r2,2516c <__subdf3+0x334>
   24eb0:	48002a1e 	bne	r9,zero,24f5c <__subdf3+0x124>
   24eb4:	2988b03a 	or	r4,r5,r6
   24eb8:	20009a1e 	bne	r4,zero,25124 <__subdf3+0x2ec>
   24ebc:	888001cc 	andi	r2,r17,7
   24ec0:	10000726 	beq	r2,zero,24ee0 <__subdf3+0xa8>
   24ec4:	888003cc 	andi	r2,r17,15
   24ec8:	01000104 	movi	r4,4
   24ecc:	11000426 	beq	r2,r4,24ee0 <__subdf3+0xa8>
   24ed0:	890b883a 	add	r5,r17,r4
   24ed4:	2c63803a 	cmpltu	r17,r5,r17
   24ed8:	1c47883a 	add	r3,r3,r17
   24edc:	2823883a 	mov	r17,r5
   24ee0:	1880202c 	andhi	r2,r3,128
   24ee4:	10005926 	beq	r2,zero,2504c <__subdf3+0x214>
   24ee8:	84000044 	addi	r16,r16,1
   24eec:	0081ffc4 	movi	r2,2047
   24ef0:	8080be26 	beq	r16,r2,251ec <__subdf3+0x3b4>
   24ef4:	017fe034 	movhi	r5,65408
   24ef8:	297fffc4 	addi	r5,r5,-1
   24efc:	1946703a 	and	r3,r3,r5
   24f00:	1804977a 	slli	r2,r3,29
   24f04:	1806927a 	slli	r3,r3,9
   24f08:	8822d0fa 	srli	r17,r17,3
   24f0c:	8401ffcc 	andi	r16,r16,2047
   24f10:	180ad33a 	srli	r5,r3,12
   24f14:	9100004c 	andi	r4,r18,1
   24f18:	1444b03a 	or	r2,r2,r17
   24f1c:	80c1ffcc 	andi	r3,r16,2047
   24f20:	1820953a 	slli	r16,r3,20
   24f24:	20c03fcc 	andi	r3,r4,255
   24f28:	180897fa 	slli	r4,r3,31
   24f2c:	00c00434 	movhi	r3,16
   24f30:	18ffffc4 	addi	r3,r3,-1
   24f34:	28c6703a 	and	r3,r5,r3
   24f38:	1c06b03a 	or	r3,r3,r16
   24f3c:	1906b03a 	or	r3,r3,r4
   24f40:	dfc00417 	ldw	ra,16(sp)
   24f44:	dcc00317 	ldw	r19,12(sp)
   24f48:	dc800217 	ldw	r18,8(sp)
   24f4c:	dc400117 	ldw	r17,4(sp)
   24f50:	dc000017 	ldw	r16,0(sp)
   24f54:	dec00504 	addi	sp,sp,20
   24f58:	f800283a 	ret
   24f5c:	0101ffc4 	movi	r4,2047
   24f60:	813fd626 	beq	r16,r4,24ebc <__alt_data_end+0xfffe4ebc>
   24f64:	29402034 	orhi	r5,r5,128
   24f68:	01000e04 	movi	r4,56
   24f6c:	2080a316 	blt	r4,r2,251fc <__subdf3+0x3c4>
   24f70:	010007c4 	movi	r4,31
   24f74:	2080c616 	blt	r4,r2,25290 <__subdf3+0x458>
   24f78:	01000804 	movi	r4,32
   24f7c:	2089c83a 	sub	r4,r4,r2
   24f80:	2910983a 	sll	r8,r5,r4
   24f84:	308ed83a 	srl	r7,r6,r2
   24f88:	3108983a 	sll	r4,r6,r4
   24f8c:	2884d83a 	srl	r2,r5,r2
   24f90:	41ccb03a 	or	r6,r8,r7
   24f94:	2008c03a 	cmpne	r4,r4,zero
   24f98:	310cb03a 	or	r6,r6,r4
   24f9c:	898dc83a 	sub	r6,r17,r6
   24fa0:	89a3803a 	cmpltu	r17,r17,r6
   24fa4:	1887c83a 	sub	r3,r3,r2
   24fa8:	1c47c83a 	sub	r3,r3,r17
   24fac:	3023883a 	mov	r17,r6
   24fb0:	1880202c 	andhi	r2,r3,128
   24fb4:	10002326 	beq	r2,zero,25044 <__subdf3+0x20c>
   24fb8:	04c02034 	movhi	r19,128
   24fbc:	9cffffc4 	addi	r19,r19,-1
   24fc0:	1ce6703a 	and	r19,r3,r19
   24fc4:	98007a26 	beq	r19,zero,251b0 <__subdf3+0x378>
   24fc8:	9809883a 	mov	r4,r19
   24fcc:	00259ec0 	call	259ec <__clzsi2>
   24fd0:	113ffe04 	addi	r4,r2,-8
   24fd4:	00c007c4 	movi	r3,31
   24fd8:	19007b16 	blt	r3,r4,251c8 <__subdf3+0x390>
   24fdc:	00800804 	movi	r2,32
   24fe0:	1105c83a 	sub	r2,r2,r4
   24fe4:	8884d83a 	srl	r2,r17,r2
   24fe8:	9906983a 	sll	r3,r19,r4
   24fec:	8922983a 	sll	r17,r17,r4
   24ff0:	10c4b03a 	or	r2,r2,r3
   24ff4:	24007816 	blt	r4,r16,251d8 <__subdf3+0x3a0>
   24ff8:	2421c83a 	sub	r16,r4,r16
   24ffc:	80c00044 	addi	r3,r16,1
   25000:	010007c4 	movi	r4,31
   25004:	20c09516 	blt	r4,r3,2525c <__subdf3+0x424>
   25008:	01400804 	movi	r5,32
   2500c:	28cbc83a 	sub	r5,r5,r3
   25010:	88c8d83a 	srl	r4,r17,r3
   25014:	8962983a 	sll	r17,r17,r5
   25018:	114a983a 	sll	r5,r2,r5
   2501c:	10c6d83a 	srl	r3,r2,r3
   25020:	8804c03a 	cmpne	r2,r17,zero
   25024:	290ab03a 	or	r5,r5,r4
   25028:	28a2b03a 	or	r17,r5,r2
   2502c:	0021883a 	mov	r16,zero
   25030:	003fa206 	br	24ebc <__alt_data_end+0xfffe4ebc>
   25034:	2090b03a 	or	r8,r4,r2
   25038:	40018e26 	beq	r8,zero,25674 <__subdf3+0x83c>
   2503c:	1007883a 	mov	r3,r2
   25040:	2023883a 	mov	r17,r4
   25044:	888001cc 	andi	r2,r17,7
   25048:	103f9e1e 	bne	r2,zero,24ec4 <__alt_data_end+0xfffe4ec4>
   2504c:	1804977a 	slli	r2,r3,29
   25050:	8822d0fa 	srli	r17,r17,3
   25054:	1810d0fa 	srli	r8,r3,3
   25058:	9100004c 	andi	r4,r18,1
   2505c:	1444b03a 	or	r2,r2,r17
   25060:	00c1ffc4 	movi	r3,2047
   25064:	80c02826 	beq	r16,r3,25108 <__subdf3+0x2d0>
   25068:	01400434 	movhi	r5,16
   2506c:	297fffc4 	addi	r5,r5,-1
   25070:	80e0703a 	and	r16,r16,r3
   25074:	414a703a 	and	r5,r8,r5
   25078:	003fa806 	br	24f1c <__alt_data_end+0xfffe4f1c>
   2507c:	0080630e 	bge	zero,r2,2520c <__subdf3+0x3d4>
   25080:	48003026 	beq	r9,zero,25144 <__subdf3+0x30c>
   25084:	0101ffc4 	movi	r4,2047
   25088:	813f8c26 	beq	r16,r4,24ebc <__alt_data_end+0xfffe4ebc>
   2508c:	29402034 	orhi	r5,r5,128
   25090:	01000e04 	movi	r4,56
   25094:	2080a90e 	bge	r4,r2,2533c <__subdf3+0x504>
   25098:	298cb03a 	or	r6,r5,r6
   2509c:	3012c03a 	cmpne	r9,r6,zero
   250a0:	0005883a 	mov	r2,zero
   250a4:	4c53883a 	add	r9,r9,r17
   250a8:	4c63803a 	cmpltu	r17,r9,r17
   250ac:	10c7883a 	add	r3,r2,r3
   250b0:	88c7883a 	add	r3,r17,r3
   250b4:	4823883a 	mov	r17,r9
   250b8:	1880202c 	andhi	r2,r3,128
   250bc:	1000d026 	beq	r2,zero,25400 <__subdf3+0x5c8>
   250c0:	84000044 	addi	r16,r16,1
   250c4:	0081ffc4 	movi	r2,2047
   250c8:	8080fe26 	beq	r16,r2,254c4 <__subdf3+0x68c>
   250cc:	00bfe034 	movhi	r2,65408
   250d0:	10bfffc4 	addi	r2,r2,-1
   250d4:	1886703a 	and	r3,r3,r2
   250d8:	880ad07a 	srli	r5,r17,1
   250dc:	180497fa 	slli	r2,r3,31
   250e0:	8900004c 	andi	r4,r17,1
   250e4:	2922b03a 	or	r17,r5,r4
   250e8:	1806d07a 	srli	r3,r3,1
   250ec:	1462b03a 	or	r17,r2,r17
   250f0:	3825883a 	mov	r18,r7
   250f4:	003f7106 	br	24ebc <__alt_data_end+0xfffe4ebc>
   250f8:	2984b03a 	or	r2,r5,r6
   250fc:	103f6826 	beq	r2,zero,24ea0 <__alt_data_end+0xfffe4ea0>
   25100:	39c03fcc 	andi	r7,r7,255
   25104:	003f6706 	br	24ea4 <__alt_data_end+0xfffe4ea4>
   25108:	4086b03a 	or	r3,r8,r2
   2510c:	18015226 	beq	r3,zero,25658 <__subdf3+0x820>
   25110:	00c00434 	movhi	r3,16
   25114:	41400234 	orhi	r5,r8,8
   25118:	18ffffc4 	addi	r3,r3,-1
   2511c:	28ca703a 	and	r5,r5,r3
   25120:	003f7e06 	br	24f1c <__alt_data_end+0xfffe4f1c>
   25124:	10bfffc4 	addi	r2,r2,-1
   25128:	1000491e 	bne	r2,zero,25250 <__subdf3+0x418>
   2512c:	898fc83a 	sub	r7,r17,r6
   25130:	89e3803a 	cmpltu	r17,r17,r7
   25134:	1947c83a 	sub	r3,r3,r5
   25138:	1c47c83a 	sub	r3,r3,r17
   2513c:	3823883a 	mov	r17,r7
   25140:	003f9b06 	br	24fb0 <__alt_data_end+0xfffe4fb0>
   25144:	2988b03a 	or	r4,r5,r6
   25148:	203f5c26 	beq	r4,zero,24ebc <__alt_data_end+0xfffe4ebc>
   2514c:	10bfffc4 	addi	r2,r2,-1
   25150:	1000931e 	bne	r2,zero,253a0 <__subdf3+0x568>
   25154:	898d883a 	add	r6,r17,r6
   25158:	3463803a 	cmpltu	r17,r6,r17
   2515c:	1947883a 	add	r3,r3,r5
   25160:	88c7883a 	add	r3,r17,r3
   25164:	3023883a 	mov	r17,r6
   25168:	003fd306 	br	250b8 <__alt_data_end+0xfffe50b8>
   2516c:	1000541e 	bne	r2,zero,252c0 <__subdf3+0x488>
   25170:	80800044 	addi	r2,r16,1
   25174:	1081ffcc 	andi	r2,r2,2047
   25178:	01000044 	movi	r4,1
   2517c:	2080a20e 	bge	r4,r2,25408 <__subdf3+0x5d0>
   25180:	8989c83a 	sub	r4,r17,r6
   25184:	8905803a 	cmpltu	r2,r17,r4
   25188:	1967c83a 	sub	r19,r3,r5
   2518c:	98a7c83a 	sub	r19,r19,r2
   25190:	9880202c 	andhi	r2,r19,128
   25194:	10006326 	beq	r2,zero,25324 <__subdf3+0x4ec>
   25198:	3463c83a 	sub	r17,r6,r17
   2519c:	28c7c83a 	sub	r3,r5,r3
   251a0:	344d803a 	cmpltu	r6,r6,r17
   251a4:	19a7c83a 	sub	r19,r3,r6
   251a8:	3825883a 	mov	r18,r7
   251ac:	983f861e 	bne	r19,zero,24fc8 <__alt_data_end+0xfffe4fc8>
   251b0:	8809883a 	mov	r4,r17
   251b4:	00259ec0 	call	259ec <__clzsi2>
   251b8:	10800804 	addi	r2,r2,32
   251bc:	113ffe04 	addi	r4,r2,-8
   251c0:	00c007c4 	movi	r3,31
   251c4:	193f850e 	bge	r3,r4,24fdc <__alt_data_end+0xfffe4fdc>
   251c8:	10bff604 	addi	r2,r2,-40
   251cc:	8884983a 	sll	r2,r17,r2
   251d0:	0023883a 	mov	r17,zero
   251d4:	243f880e 	bge	r4,r16,24ff8 <__alt_data_end+0xfffe4ff8>
   251d8:	00ffe034 	movhi	r3,65408
   251dc:	18ffffc4 	addi	r3,r3,-1
   251e0:	8121c83a 	sub	r16,r16,r4
   251e4:	10c6703a 	and	r3,r2,r3
   251e8:	003f3406 	br	24ebc <__alt_data_end+0xfffe4ebc>
   251ec:	9100004c 	andi	r4,r18,1
   251f0:	000b883a 	mov	r5,zero
   251f4:	0005883a 	mov	r2,zero
   251f8:	003f4806 	br	24f1c <__alt_data_end+0xfffe4f1c>
   251fc:	298cb03a 	or	r6,r5,r6
   25200:	300cc03a 	cmpne	r6,r6,zero
   25204:	0005883a 	mov	r2,zero
   25208:	003f6406 	br	24f9c <__alt_data_end+0xfffe4f9c>
   2520c:	10009a1e 	bne	r2,zero,25478 <__subdf3+0x640>
   25210:	82400044 	addi	r9,r16,1
   25214:	4881ffcc 	andi	r2,r9,2047
   25218:	02800044 	movi	r10,1
   2521c:	5080670e 	bge	r10,r2,253bc <__subdf3+0x584>
   25220:	0081ffc4 	movi	r2,2047
   25224:	4880af26 	beq	r9,r2,254e4 <__subdf3+0x6ac>
   25228:	898d883a 	add	r6,r17,r6
   2522c:	1945883a 	add	r2,r3,r5
   25230:	3447803a 	cmpltu	r3,r6,r17
   25234:	1887883a 	add	r3,r3,r2
   25238:	182297fa 	slli	r17,r3,31
   2523c:	300cd07a 	srli	r6,r6,1
   25240:	1806d07a 	srli	r3,r3,1
   25244:	4821883a 	mov	r16,r9
   25248:	89a2b03a 	or	r17,r17,r6
   2524c:	003f1b06 	br	24ebc <__alt_data_end+0xfffe4ebc>
   25250:	0101ffc4 	movi	r4,2047
   25254:	813f441e 	bne	r16,r4,24f68 <__alt_data_end+0xfffe4f68>
   25258:	003f1806 	br	24ebc <__alt_data_end+0xfffe4ebc>
   2525c:	843ff844 	addi	r16,r16,-31
   25260:	01400804 	movi	r5,32
   25264:	1408d83a 	srl	r4,r2,r16
   25268:	19405026 	beq	r3,r5,253ac <__subdf3+0x574>
   2526c:	01401004 	movi	r5,64
   25270:	28c7c83a 	sub	r3,r5,r3
   25274:	10c4983a 	sll	r2,r2,r3
   25278:	88a2b03a 	or	r17,r17,r2
   2527c:	8822c03a 	cmpne	r17,r17,zero
   25280:	2462b03a 	or	r17,r4,r17
